Warning[w6]: Type conflict for external/entry "_PrintfTiny", in module ?fprintf against external/entry in module ?xprintftiny; function types have different numbers of parameters
  /* In module ?fprintf: */
  /* Function, args 5, attr 0 */
  int (__cc_version2 _PrintfTiny)(_PrintfPfnType __cc_version2 *,
                                  void *,
                                  char const *,
                                  va_list *,
                                  int);
    typedef void * _PrintfPfnType(void *, char);
    typedef __Va_list va_list;
    typedef struct __Unnamed_387_114 __Va_list;
  /* In module ?xprintftiny: */
  /* Function, args 4, attr 0 */
  int (__cc_version2 _PrintfTiny)(_PrintfPfnType __cc_version2 *,
                                  void *,
                                  char const *,
                                  va_list *);
    typedef void * _PrintfPfnType(void *, char);
    typedef __Va_list va_list;
    typedef struct __Unnamed_387_114 __Va_list;
################################################################################
#                                                                              #
#      IAR Universal Linker V4.61T/W32                                         #
#                                                                              #
#           Link time     =  01/Apr/2011  12:38:45                             #
#           Target CPU    =  MSP430                                            #
#           List file     =  "C:\Texas Instruments\EZ430-RF2560 SDK\Beta_1_0\E #
#                            Z430-RF2560_Applications\Source\bluetooth\build\m #
#                            sp430\spp\accl\iar\release\Debug\List\accl.map"   #
#           Output file 1 =  "C:\Texas Instruments\EZ430-RF2560 SDK\Beta_1_0\E #
#                            Z430-RF2560_Applications\Source\bluetooth\build\m #
#                            sp430\spp\accl\iar\release\Debug\Exe\accl.d43"    #
#                            Format: debug                                     #
#                            UBROF version 10.0.3                              #
#                            Using library modules for C-SPY (-rt)             #
#           Command line  =  "C:\Texas Instruments\EZ430-RF2560 SDK\Beta_1_0\E #
#                            Z430-RF2560_Applications\Source\bluetooth\build\m #
#                            sp430\spp\accl\iar\release\Debug\Obj\acceleromete #
#                            r_pl.r43"                                         #
#                            "C:\Texas Instruments\EZ430-RF2560 SDK\Beta_1_0\E #
#                            Z430-RF2560_Applications\Source\bluetooth\build\m #
#                            sp430\spp\accl\iar\release\Debug\Obj\appl_bt_rf.r #
#                            43"                                               #
#                            "C:\Texas Instruments\EZ430-RF2560 SDK\Beta_1_0\E #
#                            Z430-RF2560_Applications\Source\bluetooth\build\m #
#                            sp430\spp\accl\iar\release\Debug\Obj\appl_cb.r43" #
#                            "C:\Texas Instruments\EZ430-RF2560 SDK\Beta_1_0\E #
#                            Z430-RF2560_Applications\Source\bluetooth\build\m #
#                            sp430\spp\accl\iar\release\Debug\Obj\appl_menu_pl #
#                            .r43"                                             #
#                            "C:\Texas Instruments\EZ430-RF2560 SDK\Beta_1_0\E #
#                            Z430-RF2560_Applications\Source\bluetooth\build\m #
#                            sp430\spp\accl\iar\release\Debug\Obj\appl_sdk.r43 #
#                            "                                                 #
#                            "C:\Texas Instruments\EZ430-RF2560 SDK\Beta_1_0\E #
#                            Z430-RF2560_Applications\Source\bluetooth\build\m #
#                            sp430\spp\accl\iar\release\Debug\Obj\appl_spp.r43 #
#                            "                                                 #
#                            "C:\Texas Instruments\EZ430-RF2560 SDK\Beta_1_0\E #
#                            Z430-RF2560_Applications\Source\bluetooth\build\m #
#                            sp430\spp\accl\iar\release\Debug\Obj\croutine.r43 #
#                            "                                                 #
#                            "C:\Texas Instruments\EZ430-RF2560 SDK\Beta_1_0\E #
#                            Z430-RF2560_Applications\Source\bluetooth\build\m #
#                            sp430\spp\accl\iar\release\Debug\Obj\hal_board.r4 #
#                            3"                                                #
#                            "C:\Texas Instruments\EZ430-RF2560 SDK\Beta_1_0\E #
#                            Z430-RF2560_Applications\Source\bluetooth\build\m #
#                            sp430\spp\accl\iar\release\Debug\Obj\hal_i2c.r43" #
#                            "C:\Texas Instruments\EZ430-RF2560 SDK\Beta_1_0\E #
#                            Z430-RF2560_Applications\Source\bluetooth\build\m #
#                            sp430\spp\accl\iar\release\Debug\Obj\hal_tlv.r43" #
#                            "C:\Texas Instruments\EZ430-RF2560 SDK\Beta_1_0\E #
#                            Z430-RF2560_Applications\Source\bluetooth\build\m #
#                            sp430\spp\accl\iar\release\Debug\Obj\hal_usb.r43" #
#                            "C:\Texas Instruments\EZ430-RF2560 SDK\Beta_1_0\E #
#                            Z430-RF2560_Applications\Source\bluetooth\build\m #
#                            sp430\spp\accl\iar\release\Debug\Obj\heap_2.r43"  #
#                            "C:\Texas Instruments\EZ430-RF2560 SDK\Beta_1_0\E #
#                            Z430-RF2560_Applications\Source\bluetooth\build\m #
#                            sp430\spp\accl\iar\release\Debug\Obj\heap_bt.r43" #
#                            "C:\Texas Instruments\EZ430-RF2560 SDK\Beta_1_0\E #
#                            Z430-RF2560_Applications\Source\bluetooth\build\m #
#                            sp430\spp\accl\iar\release\Debug\Obj\list.r43"    #
#                            "C:\Texas Instruments\EZ430-RF2560 SDK\Beta_1_0\E #
#                            Z430-RF2560_Applications\Source\bluetooth\build\m #
#                            sp430\spp\accl\iar\release\Debug\Obj\main.r43"    #
#                            "C:\Texas Instruments\EZ430-RF2560 SDK\Beta_1_0\E #
#                            Z430-RF2560_Applications\Source\bluetooth\build\m #
#                            sp430\spp\accl\iar\release\Debug\Obj\msp430_uart. #
#                            r43"                                              #
#                            "C:\Texas Instruments\EZ430-RF2560 SDK\Beta_1_0\E #
#                            Z430-RF2560_Applications\Source\bluetooth\build\m #
#                            sp430\spp\accl\iar\release\Debug\Obj\port.r43"    #
#                            "C:\Texas Instruments\EZ430-RF2560 SDK\Beta_1_0\E #
#                            Z430-RF2560_Applications\Source\bluetooth\build\m #
#                            sp430\spp\accl\iar\release\Debug\Obj\portext.r43" #
#                            "C:\Texas Instruments\EZ430-RF2560 SDK\Beta_1_0\E #
#                            Z430-RF2560_Applications\Source\bluetooth\build\m #
#                            sp430\spp\accl\iar\release\Debug\Obj\queue.r43"   #
#                            "C:\Texas Instruments\EZ430-RF2560 SDK\Beta_1_0\E #
#                            Z430-RF2560_Applications\Source\bluetooth\build\m #
#                            sp430\spp\accl\iar\release\Debug\Obj\sdk_pl.r43"  #
#                            "C:\Texas Instruments\EZ430-RF2560 SDK\Beta_1_0\E #
#                            Z430-RF2560_Applications\Source\bluetooth\build\m #
#                            sp430\spp\accl\iar\release\Debug\Obj\tasks.r43"   #
#                            "C:\Texas Instruments\EZ430-RF2560 SDK\Beta_1_0\E #
#                            Z430-RF2560_Applications\Source\bluetooth\build\m #
#                            sp430\spp\accl\iar\release\Debug\Obj\user_task.r4 #
#                            3"                                                #
#                            "C:\Texas Instruments\EZ430-RF2560 SDK\Beta_1_0\E #
#                            Z430-RF2560_Applications\Source\bluetooth\build\m #
#                            sp430\spp\lib\iar\libTI_init_script.r43"          #
#                            "C:\Texas Instruments\EZ430-RF2560 SDK\Beta_1_0\E #
#                            Z430-RF2560_Applications\Source\bluetooth\build\m #
#                            sp430\spp\lib\iar\libspp_core.r43"                #
#                            "C:\Texas Instruments\EZ430-RF2560 SDK\Beta_1_0\E #
#                            Z430-RF2560_Applications\Source\bluetooth\build\m #
#                            sp430\spp\lib\iar\libspp_pl.r43"                  #
#                            -o                                                #
#                            "C:\Texas Instruments\EZ430-RF2560 SDK\Beta_1_0\E #
#                            Z430-RF2560_Applications\Source\bluetooth\build\m #
#                            sp430\spp\accl\iar\release\Debug\Exe\accl.d43"    #
#                            -l                                                #
#                            "C:\Texas Instruments\EZ430-RF2560 SDK\Beta_1_0\E #
#                            Z430-RF2560_Applications\Source\bluetooth\build\m #
#                            sp430\spp\accl\iar\release\Debug\List\accl.map"   #
#                            -xmsn                                             #
#                            "-IC:\Program Files\IAR Systems\Embedded Workbenc #
#                            h 6.0\430\LIB\"                                   #
#                            -f                                                #
#                            "C:\Program Files\IAR Systems\Embedded Workbench  #
#                            6.0\430\CONFIG\lnk430F5438A.xcl"                  #
#                            (-cmsp430 -QCODE_I=CODE_ID                        #
#                            -Z(DATA)DATA16_I,DATA16_Z,DATA16_N,DATA16_HEAP+_D #
#                            ATA16_HEAP_SIZE=1C00-5BFF                         #
#                            -Z(DATA)CODE_I                                    #
#                            -Z(DATA)DATA20_I,DATA20_Z,DATA20_N,DATA20_HEAP+_D #
#                            ATA20_HEAP_SIZE                                   #
#                            -Z(DATA)CSTACK+_STACK_SIZE#                       #
#                            -Z(CONST)INFO=1800-19FF                           #
#                            -Z(CONST)INFOA=1980-19FF                          #
#                            -Z(CONST)INFOB=1900-197F                          #
#                            -Z(CONST)INFOC=1880-18FF                          #
#                            -Z(CONST)INFOD=1800-187F                          #
#                            -Z(CODE)CSTART,ISR_CODE=5C00-FF7F                 #
#                            -Z(CONST)DATA16_C,DATA16_ID,DIFUNCT,CHECKSUM=5C00 #
#                            -FF7F                                             #
#                            -P(CODE)CODE=5C00-FF7F,10000-45BFF                #
#                            -Z(CODE)CODE_ID                                   #
#                            -Z(CONST)DATA20_C,DATA20_ID=5C00-FF7F,10000-45BFF #
#                            -Z(CODE)INTVEC=FF80-FFFF                          #
#                            -Z(CODE)RESET=FFFE-FFFF) -f                       #
#                            "C:\Program Files\IAR Systems\Embedded Workbench  #
#                            6.0\430\config\multiplier32_loc2.xcl"             #
#                            (-e?Mul8HwLoc2=?Mul8 -e?Mul16HwLoc2=?Mul16        #
#                            -e?Mul16to32uHwLoc2=?Mul16to32u                   #
#                            -e?Mul16to32sHwLoc2=?Mul16to32s                   #
#                            -e?Mul32Hw32Loc2=?Mul32                           #
#                            -e?Mul64Hw32Loc2=_Mul64i                          #
#                            -e?Mul32u32uto64iHw32Loc2=_Mul32u32uto64i         #
#                            -e?Mul32fHwLoc2=_Mul32f                           #
#                            -e_Mul64fHwPtrLoc2=_Mul64fPtr)                    #
#                            -D_STACK_SIZE=12C -rt                             #
#                            "C:\Program Files\IAR Systems\Embedded Workbench  #
#                            6.0\430\LIB\DLIB\dl430xlff.r43"                   #
#                            -e_PrintfTiny=_Printf -e_ScanfSmall=_Scanf        #
#                            -D_DATA16_HEAP_SIZE=32 -s __program_start         #
#                            -D_DATA20_HEAP_SIZE=32                            #
#                                                                              #
#                           Copyright (C) 1987-2010 IAR Systems AB.            #
################################################################################





                ****************************************
                *                                      *
                *           CROSS REFERENCE            *
                *                                      *
                ****************************************

       Program entry at :           5C00  Relocatable, from module : ?cstart




                ****************************************
                *                                      *
                *            RUNTIME MODEL             *
                *                                      *
                ****************************************

  __SystemLibrary            = DLib
  __core                     = 430X
  __data_model               = large
  __dlib_file_descriptor     = 1
  __dlib_full_locale_support = 1
  __double_size              = 32
  __pic                      = no
  __reg_r4                   = free
  __reg_r5                   = free
  __rt_version               = 3



                ****************************************
                *                                      *
                *              MODULE MAP              *
                *                                      *
                ****************************************


  DEFINED ABSOLUTE ENTRIES
    *************************************************************************

  DEFINED ABSOLUTE ENTRIES
  PROGRAM MODULE, NAME : ?ABS_ENTRY_MOD

Absolute parts
           ENTRY                   ADDRESS         REF BY
           =====                   =======         ======
           _DATA20_HEAP_SIZE       0032 
           _DATA16_HEAP_SIZE       0032 
           _STACK_SIZE             012C 
    *************************************************************************

  FILE NAME : C:\Texas Instruments\EZ430-RF2560 SDK\Beta_1_0\EZ430-RF2560_Applications\Source\bluetooth\build\msp430\spp\accl\iar\release\Debug\Obj\accelerometer_pl.r43
  PROGRAM MODULE, NAME : accelerometer_pl

  SEGMENTS IN THE MODULE
  ======================
DATA20_Z
  Relative segment, address: 37E4 - 37E6 (0x3 bytes), align: 0
  Segment part 2.             Intra module refs:   accelerometer_read_cord
           ENTRY                   ADDRESS         REF BY
           =====                   =======         ======
           accl_coord              37E4 
    -------------------------------------------------------------------------
DATA20_Z
  Relative segment, address: 37E7 - 37E7 (0x1 bytes), align: 0
  Segment part 3.             Intra module refs:   accelerometer_read_cord
           ENTRY                   ADDRESS         REF BY
           =====                   =======         ======
           accl_x                  37E7            sdk_accelerometer_read_int_xyz (sdk_pl)
    -------------------------------------------------------------------------
DATA20_Z
  Relative segment, address: 37E8 - 37E8 (0x1 bytes), align: 0
  Segment part 4.             Intra module refs:   accelerometer_read_cord
           ENTRY                   ADDRESS         REF BY
           =====                   =======         ======
           accl_y                  37E8            sdk_accelerometer_read_int_xyz (sdk_pl)
    -------------------------------------------------------------------------
DATA20_Z
  Relative segment, address: 37E9 - 37E9 (0x1 bytes), align: 0
  Segment part 5.             Intra module refs:   accelerometer_read_cord
           ENTRY                   ADDRESS         REF BY
           =====                   =======         ======
           accl_z                  37E9            sdk_accelerometer_read_int_xyz (sdk_pl)
    -------------------------------------------------------------------------
<CODE> 3 (was CODE)
  Relative segment, address: 00016BDC - 00016BDF (0x4 bytes), align: 1
  Segment part 7.
           ENTRY                   ADDRESS         REF BY
           =====                   =======         ======
           accelerometer_init      00016BDC        sdk_sensor_init (sdk_pl)
               calls direct
               CSTACK = 00000000 ( 00000004 )
    -------------------------------------------------------------------------
<CODE> 3 (was CODE)
  Relative segment, address: 000159B4 - 000159D9 (0x26 bytes), align: 1
  Segment part 6.
           ENTRY                   ADDRESS         REF BY
           =====                   =======         ======
           accelerometer_read_cord
                                   000159B4        sdk_accelerometer_read_int_xyz (sdk_pl)
               calls direct
               CSTACK = 00000000 ( 00000008 )

    *************************************************************************

  FILE NAME : C:\Texas Instruments\EZ430-RF2560 SDK\Beta_1_0\EZ430-RF2560_Applications\Source\bluetooth\build\msp430\spp\accl\iar\release\Debug\Obj\appl_bt_rf.r43
  PROGRAM MODULE, NAME : appl_bt_rf

  SEGMENTS IN THE MODULE
  ======================
DATA16_AN
  Relative segment, address: 070A - 070B (0x2 bytes), align: 0
  Segment part 1. ROOT.       Intra module refs:   PORT1_VECTOR_ISR
                                                   ehcill_send_wakeup_ind
                                                   ehcill_uart_handler
                                                   vApplicationIdleHook (appl_spp)
           ENTRY                   ADDRESS         REF BY
           =====                   =======         ======
           _A_ADC12IFG_L           070A 
           LOCAL                   ADDRESS         
           =====                   =======         
           ADC12IFG                070A 
           ADC12IFG_H              070B 
           ADC12IFG_L              070A 
    -------------------------------------------------------------------------
DATA20_Z
  Relative segment, address: 37EA - 37EA (0x1 bytes), align: 0
  Segment part 4.             Intra module refs:   ehcill_handle_sleep_ind
                                                   ehcill_handle_wake_up_ack
                                                   ehcill_handle_wake_up_ind
                                                   ehcill_send_deep_sleep_ack
                                                   ehcill_send_wakeup_ack
                                                   ehcill_send_wakeup_ind
                                                   ehcill_wake_up_from_host
           ENTRY                   ADDRESS         REF BY
           =====                   =======         ======
           deep_sleep_state        37EA            vApplicationIdleHook (appl_spp)
    -------------------------------------------------------------------------
DATA20_I
  Relative segment, address: 1C22 - 1C2E (0xd bytes), align: 0
  Segment part 5.             Intra module refs:   sdk_enable_lps_mode
           LOCAL                   ADDRESS         
           =====                   =======         
           sdk_lps_param           1C22 
    -------------------------------------------------------------------------
DATA20_I
  Relative segment, address: 1C2F - 1C37 (0x9 bytes), align: 0
  Segment part 7.             Intra module refs:   sdk_deep_sleep_enable
           LOCAL                   ADDRESS         
           =====                   =======         
           sleep_enable_param      1C2F 
    -------------------------------------------------------------------------
DATA20_I
  Relative segment, address: 1C38 - 1C3D (0x6 bytes), align: 0
  Segment part 11.            Intra module refs:   sdk_deep_sleep_config
           LOCAL                   ADDRESS         
           =====                   =======         
           sleep_config_param      1C38 
    -------------------------------------------------------------------------
<CODE> 3 (was CODE)
  Relative segment, address: 00015EBA - 00015ED3 (0x1a bytes), align: 1
  Segment part 26.            Intra module refs:   ehcill_uart_handler
           ENTRY                   ADDRESS         REF BY
           =====                   =======         ======
           uart_enable_cts_interrupt
                                   00015EBA 
               CSTACK = 00000000 ( 00000004 )
    -------------------------------------------------------------------------
<CODE> 3 (was CODE)
  Relative segment, address: 000160A4 - 000160B9 (0x16 bytes), align: 1
  Segment part 27.            Intra module refs:   uart_disable_cts_interrupt
                                                   uart_enable_cts_interrupt
           LOCAL                   ADDRESS         
           =====                   =======         
           ?Subroutine2            000160A4 
    -------------------------------------------------------------------------
<CODE> 3 (was CODE)
  Relative segment, address: 00015D3A - 00015D57 (0x1e bytes), align: 1
  Segment part 28.            Intra module refs:   uart_disable_cts_interrupt
                                                   uart_enable_cts_interrupt
           LOCAL                   ADDRESS         
           =====                   =======         
           ?Subroutine1            00015D3A 
    -------------------------------------------------------------------------
<CODE> 3 (was CODE)
  Relative segment, address: 000164DE - 000164ED (0x10 bytes), align: 1
  Segment part 18.            Intra module refs:   PORT1_VECTOR_ISR
                                                   ehcill_send_wakeup_ind
           ENTRY                   ADDRESS         REF BY
           =====                   =======         ======
           uart_disable_cts_interrupt
                                   000164DE 
               CSTACK = 00000000 ( 00000004 )
    -------------------------------------------------------------------------
ISR_CODE
  Relative segment, address: 5C38 - 5C63 (0x2c bytes), align: 1
  Segment part 30.            Intra module refs:   PORT1_VECTOR_ISR::??INTVEC 94
           ENTRY                   ADDRESS         REF BY
           =====                   =======         ======
           PORT1_VECTOR_ISR        5C38 
               interrupt function
               calls direct
               CSTACK = 00000000 ( 00000014 )
    -------------------------------------------------------------------------
<CODE> 3 (was CODE)
  Relative segment, address: 00014B04 - 00014B47 (0x44 bytes), align: 1
  Segment part 19.            Intra module refs:   ehcill_wake_up_from_host
           ENTRY                   ADDRESS         REF BY
           =====                   =======         ======
           ehcill_send_wakeup_ind
                                   00014B04 
               calls direct
               CSTACK = 00000000 ( 00000006 )
    -------------------------------------------------------------------------
<CODE> 3 (was CODE)
  Relative segment, address: 0001635A - 0001636B (0x12 bytes), align: 1
  Segment part 22.            Intra module refs:   ehcill_handle_wake_up_ind
           ENTRY                   ADDRESS         REF BY
           =====                   =======         ======
           ehcill_send_wakeup_ack
                                   0001635A 
               CSTACK = 00000000 ( 00000004 )
    -------------------------------------------------------------------------
<CODE> 3 (was CODE)
  Relative segment, address: 0001659E - 000165AD (0x10 bytes), align: 1
  Segment part 24.            Intra module refs:   ehcill_handle_sleep_ind
           ENTRY                   ADDRESS         REF BY
           =====                   =======         ======
           ehcill_send_deep_sleep_ack
                                   0001659E 
               CSTACK = 00000000 ( 00000004 )
    -------------------------------------------------------------------------
<CODE> 3 (was CODE)
  Relative segment, address: 00016136 - 00016149 (0x14 bytes), align: 1
  Segment part 25.            Intra module refs:   ehcill_uart_handler
           ENTRY                   ADDRESS         REF BY
           =====                   =======         ======
           ehcill_handle_sleep_ind
                                   00016136 
               calls direct
               CSTACK = 00000000 ( 00000004 )
    -------------------------------------------------------------------------
<CODE> 3 (was CODE)
  Relative segment, address: 0001593E - 00015965 (0x28 bytes), align: 1
  Segment part 23.            Intra module refs:   ehcill_uart_handler
           ENTRY                   ADDRESS         REF BY
           =====                   =======         ======
           ehcill_handle_wake_up_ind
                                   0001593E 
               calls direct
               CSTACK = 00000000 ( 00000004 )
    -------------------------------------------------------------------------
<CODE> 3 (was CODE)
  Relative segment, address: 00015F1C - 00015F33 (0x18 bytes), align: 1
  Segment part 21.            Intra module refs:   ehcill_uart_handler
           ENTRY                   ADDRESS         REF BY
           =====                   =======         ======
           ehcill_handle_wake_up_ack
                                   00015F1C 
               calls direct
               CSTACK = 00000000 ( 00000004 )
    -------------------------------------------------------------------------
<CODE> 3 (was CODE)
  Relative segment, address: 00012CF2 - 00012D73 (0x82 bytes), align: 1
  Segment part 29.
           ENTRY                   ADDRESS         REF BY
           =====                   =======         ======
           ehcill_uart_handler     00012CF2        ht_read_task_start_routine (read_task)
               calls direct
               CSTACK = 00000000 ( 00000004 )
    -------------------------------------------------------------------------
<CODE> 3 (was CODE)
  Relative segment, address: 00016186 - 00016199 (0x14 bytes), align: 1
  Segment part 20.
           ENTRY                   ADDRESS         REF BY
           =====                   =======         ======
           ehcill_wake_up_from_host
                                   00016186        hci_trigger_command_tx (hci_command_queue)
                                                   l2cap_schedule_data_tx (l2cap_lmp)
               calls direct
               CSTACK = 00000000 ( 00000004 )
    -------------------------------------------------------------------------
<CODE> 3 (was CODE)
  Relative segment, address: 0001647E - 0001648D (0x10 bytes), align: 1
  Segment part 17.
           ENTRY                   ADDRESS         REF BY
           =====                   =======         ======
           sdk_deep_sleep_config   0001647E        hci_command_complete_event (hci_events)
               calls direct
               CSTACK = 00000000 ( 00000004 )
    -------------------------------------------------------------------------
<CODE> 3 (was CODE)
  Relative segment, address: 000163B4 - 000163BB (0x8 bytes), align: 1
  Segment part 15.            Intra module refs:   sdk_deep_sleep_enable
           LOCAL                   ADDRESS         
           =====                   =======         
           ?Subroutine0            000163B4 
    -------------------------------------------------------------------------
<CODE> 3 (was CODE)
  Relative segment, address: 000163BC - 000163C5 (0xa bytes), align: 1
  Segment part 16.
           ENTRY                   ADDRESS         REF BY
           =====                   =======         ======
           sdk_deep_sleep_enable   000163BC        hci_command_complete_event (hci_events)
               calls direct
               CSTACK = 00000000 ( 00000004 )
    -------------------------------------------------------------------------
<CODE> 3 (was CODE)
  Relative segment, address: 0001644E - 0001645D (0x10 bytes), align: 1
  Segment part 13.
           ENTRY                   ADDRESS         REF BY
           =====                   =======         ======
           sdk_enable_lps_mode     0001644E        sdk_bluetooth_on_complete (appl_cb)
               calls direct
               CSTACK = 00000000 ( 00000004 )
    -------------------------------------------------------------------------
INTVEC
  Common segment, address: FF80 - FFDF (0x60 bytes), align: 1
  Segment part 2. ROOT.
           ENTRY                   ADDRESS         REF BY
           =====                   =======         ======
           PORT1_VECTOR_ISR::??INTVEC 94
                                   FFDE 
    -------------------------------------------------------------------------
DATA20_ID
  Relative segment, address: 00020554 - 00020560 (0xd bytes), align: 0
  Segment part 6.             Intra module refs:   sdk_lps_param
    -------------------------------------------------------------------------
DATA20_ID
  Relative segment, address: 00020561 - 00020569 (0x9 bytes), align: 0
  Segment part 8.             Intra module refs:   sleep_enable_param
    -------------------------------------------------------------------------
DATA20_ID
  Relative segment, address: 0002056A - 0002056F (0x6 bytes), align: 0
  Segment part 12.            Intra module refs:   sleep_config_param

    *************************************************************************

  FILE NAME : C:\Texas Instruments\EZ430-RF2560 SDK\Beta_1_0\EZ430-RF2560_Applications\Source\bluetooth\build\msp430\spp\accl\iar\release\Debug\Obj\appl_cb.r43
  PROGRAM MODULE, NAME : appl_cb

  SEGMENTS IN THE MODULE
  ======================
DATA16_AN
  Relative segment, address: 0202 - 0203 (0x2 bytes), align: 0
  Segment part 1. ROOT.       Intra module refs:   TIMER1_A0_ISR (user_task)
                                                   appl_bt_on_sdk_indication (sdk_pl)
                                                   appl_spp_notify_cb (appl_spp)
                                                   halBoardInit (hal_board)
                                                   init_buttons (appl_menu_pl)
                                                   restore_peripheral_status (sdk_pl)
                                                   sdk_bluetooth_on_complete
                                                   sdk_configure_bt_uart (sdk_pl)
                                                   sdk_error_handler (sdk_pl)
                                                   uart_error_handler (sdk_pl)
                                                   user_task_routine (user_task)
                                                   validate_eval_package (bt_id_check)
           ENTRY                   ADDRESS         REF BY
           =====                   =======         ======
           _A_PAOUT_L              0202 
           LOCAL                   ADDRESS         
           =====                   =======         
           PAOUT                   0202 
           PAOUT_H                 0203 
           PAOUT_L                 0202 
    -------------------------------------------------------------------------
DATA20_Z
  Relative segment, address: 1C5A - 1CBD (0x64 bytes), align: 1
  Segment part 18.            Intra module refs:   ?Subroutine5
                                                   sdk_hci_event_indication_callback
           ENTRY                   ADDRESS         REF BY
           =====                   =======         ======
           rem_bt_dev              1C5A 
    -------------------------------------------------------------------------
DATA20_Z
  Relative segment, address: 37EB - 37EB (0x1 bytes), align: 0
  Segment part 19.            Intra module refs:   sdk_hci_event_indication_callback
           ENTRY                   ADDRESS         REF BY
           =====                   =======         ======
           rem_dev_index           37EB            sdk_bluetooth_menu_handler (appl_sdk)
    -------------------------------------------------------------------------
DATA20_Z
  Relative segment, address: 37EC - 37EC (0x1 bytes), align: 0
  Segment part 20.            Intra module refs:   sdk_hci_event_indication_callback
           ENTRY                   ADDRESS         REF BY
           =====                   =======         ======
           rem_dev_num             37EC            sdk_bluetooth_menu_handler (appl_sdk)
    -------------------------------------------------------------------------
DATA20_Z
  Relative segment, address: 37ED - 37ED (0x1 bytes), align: 0
  Segment part 22.            Intra module refs:   sdk_hci_event_indication_callback
           ENTRY                   ADDRESS         REF BY
           =====                   =======         ======
           sdk_scan_enable         37ED 
    -------------------------------------------------------------------------
<CODE> 3 (was CODE)
  Relative segment, address: 00015772 - 0001579D (0x2c bytes), align: 1
  Segment part 39.
           ENTRY                   ADDRESS         REF BY
           =====                   =======         ======
           sdk_bluetooth_on_complete
                                   00015772        user_task_routine (user_task)
               calls direct
               CSTACK = 00000000 ( 00000004 )
    -------------------------------------------------------------------------
<CODE> 3 (was CODE)
  Relative segment, address: 0001646E - 0001647D (0x10 bytes), align: 1
  Segment part 40.            Intra module refs:   sdk_bluetooth_on_complete
                                                   sdk_hci_event_indication_callback
           LOCAL                   ADDRESS         
           =====                   =======         
           ?Subroutine9            0001646E 
    -------------------------------------------------------------------------
<CODE> 1 (was CODE)
  Relative segment, address: 7EDA - 82FD (0x424 bytes), align: 1
  Segment part 27.
           ENTRY                   ADDRESS         REF BY
           =====                   =======         ======
           sdk_hci_event_indication_callback
                                   7EDA            user_task_routine (user_task)
               calls direct
               CSTACK = 00000000 ( 00000030 )
    -------------------------------------------------------------------------
<CODE> 3 (was CODE)
  Relative segment, address: 000162B8 - 000162BB (0x4 bytes), align: 1
  Segment part 28.            Intra module refs:   sdk_hci_event_indication_callback
           LOCAL                   ADDRESS         
           =====                   =======         
           ?Subroutine8            000162B8 
    -------------------------------------------------------------------------
<CODE> 3 (was CODE)
  Relative segment, address: 000162BC - 000162C9 (0xe bytes), align: 1
  Segment part 29.            Intra module refs:   ?Subroutine8
                                                   sdk_hci_event_indication_callback
    -------------------------------------------------------------------------
<CODE> 3 (was CODE)
  Relative segment, address: 000168EE - 000168F7 (0xa bytes), align: 1
  Segment part 30.            Intra module refs:   sdk_hci_event_indication_callback
           LOCAL                   ADDRESS         
           =====                   =======         
           ?Subroutine7            000168EE 
    -------------------------------------------------------------------------
<CODE> 3 (was CODE)
  Relative segment, address: 0001658E - 00016591 (0x4 bytes), align: 1
  Segment part 31.            Intra module refs:   sdk_hci_event_indication_callback
           LOCAL                   ADDRESS         
           =====                   =======         
           ?Subroutine6            0001658E 
    -------------------------------------------------------------------------
<CODE> 3 (was CODE)
  Relative segment, address: 00016592 - 0001659D (0xc bytes), align: 1
  Segment part 32.            Intra module refs:   ?Subroutine6
                                                   sdk_hci_event_indication_callback
    -------------------------------------------------------------------------
<CODE> 3 (was CODE)
  Relative segment, address: 000163A2 - 000163B3 (0x12 bytes), align: 1
  Segment part 33.            Intra module refs:   sdk_hci_event_indication_callback
           LOCAL                   ADDRESS         
           =====                   =======         
           ?Subroutine5            000163A2 
    -------------------------------------------------------------------------
<CODE> 3 (was CODE)
  Relative segment, address: 00016336 - 00016339 (0x4 bytes), align: 1
  Segment part 34.            Intra module refs:   sdk_hci_event_indication_callback
           LOCAL                   ADDRESS         
           =====                   =======         
           ?Subroutine4            00016336 
    -------------------------------------------------------------------------
<CODE> 3 (was CODE)
  Relative segment, address: 0001633A - 00016347 (0xe bytes), align: 1
  Segment part 35.            Intra module refs:   ?Subroutine4
                                                   sdk_hci_event_indication_callback
    -------------------------------------------------------------------------
<CODE> 3 (was CODE)
  Relative segment, address: 00016882 - 0001688D (0xc bytes), align: 1
  Segment part 36.            Intra module refs:   ?Subroutine1
                                                   Segment part 35
                                                   sdk_hci_event_indication_callback
           LOCAL                   ADDRESS         
           =====                   =======         
           ?Subroutine10           00016882 
    -------------------------------------------------------------------------
<CODE> 3 (was CODE)
  Relative segment, address: 000161C2 - 000161D5 (0x14 bytes), align: 1
  Segment part 37.            Intra module refs:   sdk_hci_event_indication_callback
           LOCAL                   ADDRESS         
           =====                   =======         
           ?Subroutine2            000161C2 
    -------------------------------------------------------------------------
<CODE> 3 (was CODE)
  Relative segment, address: 00015DE8 - 00015E03 (0x1c bytes), align: 1
  Segment part 38.            Intra module refs:   sdk_hci_event_indication_callback
           LOCAL                   ADDRESS         
           =====                   =======         
           ?Subroutine1            00015DE8 
    -------------------------------------------------------------------------
<CODE> 3 (was CODE)
  Relative segment, address: 000131D8 - 00013251 (0x7a bytes), align: 1
  Segment part 26.            Intra module refs:   ?Subroutine7
                                                   sdk_hci_event_indication_callback
           ENTRY                   ADDRESS         REF BY
           =====                   =======         ======
           appl_dump_bytes         000131D8 
               calls direct
               CSTACK = 00000000 ( 0000005E )
    -------------------------------------------------------------------------
<CODE> 1 (was CODE)
  Relative segment, address: BB96 - BD89 (0x1f4 bytes), align: 1
  Segment part 23.            Intra module refs:   sdk_bluetooth_on_complete
           ENTRY                   ADDRESS         REF BY
           =====                   =======         ======
           sdk_sm_ui_notify_cb     BB96 
               calls direct
               CSTACK = 00000000 ( 00000098 )
    -------------------------------------------------------------------------
<CODE> 3 (was CODE)
  Relative segment, address: 00016B86 - 00016B8B (0x6 bytes), align: 1
  Segment part 24.            Intra module refs:   sdk_sm_ui_notify_cb
           LOCAL                   ADDRESS         
           =====                   =======         
           ?Subroutine3            00016B86 
    -------------------------------------------------------------------------
<CODE> 3 (was CODE)
  Relative segment, address: 0001698E - 00016997 (0xa bytes), align: 1
  Segment part 25.            Intra module refs:   sdk_sm_ui_notify_cb
           LOCAL                   ADDRESS         
           =====                   =======         
           ?Subroutine0            0001698E 
    -------------------------------------------------------------------------
DATA20_C
  Relative segment, address: 00016D78 - 00016D84 (0xd bytes), align: 0
  Segment part 4.             Intra module refs:   ?Subroutine2
    -------------------------------------------------------------------------
DATA20_C
  Relative segment, address: 00016D85 - 00016DD4 (0x50 bytes), align: 0
  Segment part 5.             Intra module refs:   sdk_sm_ui_notify_cb
    -------------------------------------------------------------------------
DATA20_C
  Relative segment, address: 00016DD5 - 00016E22 (0x4e bytes), align: 0
  Segment part 6.             Intra module refs:   sdk_sm_ui_notify_cb
    -------------------------------------------------------------------------
DATA20_C
  Relative segment, address: 00016E23 - 00016E27 (0x5 bytes), align: 0
  Segment part 7.             Intra module refs:   sdk_sm_ui_notify_cb
    -------------------------------------------------------------------------
DATA20_C
  Relative segment, address: 00016E28 - 00016E41 (0x1a bytes), align: 0
  Segment part 8.             Intra module refs:   sdk_sm_ui_notify_cb
    -------------------------------------------------------------------------
DATA20_C
  Relative segment, address: 00016E42 - 00016E8F (0x4e bytes), align: 0
  Segment part 9.             Intra module refs:   sdk_sm_ui_notify_cb
    -------------------------------------------------------------------------
DATA20_C
  Relative segment, address: 00016E90 - 00016EB9 (0x2a bytes), align: 0
  Segment part 10.            Intra module refs:   sdk_sm_ui_notify_cb
    -------------------------------------------------------------------------
DATA20_C
  Relative segment, address: 00016EBA - 00016EBD (0x4 bytes), align: 0
  Segment part 11.            Intra module refs:   sdk_sm_ui_notify_cb
    -------------------------------------------------------------------------
DATA20_C
  Relative segment, address: 00016EBE - 00016EC1 (0x4 bytes), align: 0
  Segment part 12.            Intra module refs:   sdk_sm_ui_notify_cb
    -------------------------------------------------------------------------
DATA20_C
  Relative segment, address: 00016EC2 - 00016F10 (0x4f bytes), align: 0
  Segment part 13.            Intra module refs:   sdk_sm_ui_notify_cb
    -------------------------------------------------------------------------
DATA20_C
  Relative segment, address: 00016F11 - 00016F62 (0x52 bytes), align: 0
  Segment part 14.            Intra module refs:   sdk_sm_ui_notify_cb
    -------------------------------------------------------------------------
DATA20_C
  Relative segment, address: 00016F63 - 00016FB9 (0x57 bytes), align: 0
  Segment part 15.            Intra module refs:   sdk_sm_ui_notify_cb
    -------------------------------------------------------------------------
DATA20_C
  Relative segment, address: 00016FBA - 00016FD6 (0x1d bytes), align: 0
  Segment part 16.            Intra module refs:   sdk_sm_ui_notify_cb
    -------------------------------------------------------------------------
DATA20_C
  Relative segment, address: 00016FD7 - 00016FFF (0x29 bytes), align: 0
  Segment part 17.            Intra module refs:   sdk_sm_ui_notify_cb
    -------------------------------------------------------------------------
DATA16_C
  Relative segment, address: 5FE6 - 5FED (0x8 bytes), align: 1
  Segment part 3.             Intra module refs:   sdk_hci_event_indication_callback

    *************************************************************************

  FILE NAME : C:\Texas Instruments\EZ430-RF2560 SDK\Beta_1_0\EZ430-RF2560_Applications\Source\bluetooth\build\msp430\spp\accl\iar\release\Debug\Obj\appl_menu_pl.r43
  PROGRAM MODULE, NAME : appl_menu_pl

  SEGMENTS IN THE MODULE
  ======================
DATA16_AN
  Relative segment, address: 0204 - 0205 (0x2 bytes), align: 0
  Segment part 2. ROOT.       Intra module refs:   TIMER1_A0_ISR (user_task)
                                                   halAccStart (hal_i2c)
                                                   halBoardInit (hal_board)
                                                   halTempStart (hal_i2c)
                                                   init_buttons
                                                   sdk_bt_rf_port_config (sdk_pl)
                                                   sdk_configure_bt_uart (sdk_pl)
           ENTRY                   ADDRESS         REF BY
           =====                   =======         ======
           _A_PADIR_L              0204 
           LOCAL                   ADDRESS         
           =====                   =======         
           PADIR                   0204 
           PADIR_H                 0205 
           PADIR_L                 0204 
    -------------------------------------------------------------------------
DATA16_AN
  Relative segment, address: 0206 - 0207 (0x2 bytes), align: 0
  Segment part 3. ROOT.       Intra module refs:   init_buttons
                                                   sdk_configure_bt_uart (sdk_pl)
           ENTRY                   ADDRESS         REF BY
           =====                   =======         ======
           _A_PAREN_L              0206 
           LOCAL                   ADDRESS         
           =====                   =======         
           PAREN                   0206 
           PAREN_H                 0207 
           PAREN_L                 0206 
    -------------------------------------------------------------------------
DATA16_AN
  Relative segment, address: 020A - 020B (0x2 bytes), align: 0
  Segment part 4. ROOT.       Intra module refs:   halAccStart (hal_i2c)
                                                   halBoardInit (hal_board)
                                                   halTempStart (hal_i2c)
                                                   init_buttons
                                                   sdk_bt_rf_port_config (sdk_pl)
                                                   sdk_configure_bt_uart (sdk_pl)
           ENTRY                   ADDRESS         REF BY
           =====                   =======         ======
           _A_PASEL_L              020A 
           LOCAL                   ADDRESS         
           =====                   =======         
           PASEL                   020A 
           PASEL_H                 020B 
           PASEL_L                 020A 
    -------------------------------------------------------------------------
DATA16_AN
  Relative segment, address: 0218 - 0219 (0x2 bytes), align: 0
  Segment part 5. ROOT.       Intra module refs:   init_buttons
                                                   sdk_configure_bt_uart (sdk_pl)
           ENTRY                   ADDRESS         REF BY
           =====                   =======         ======
           _A_PAIES_L              0218 
           LOCAL                   ADDRESS         
           =====                   =======         
           PAIES                   0218 
           PAIES_H                 0219 
           PAIES_L                 0218 
    -------------------------------------------------------------------------
DATA16_AN
  Relative segment, address: 021A - 021B (0x2 bytes), align: 0
  Segment part 6. ROOT.       Intra module refs:   init_buttons
                                                   sdk_configure_bt_uart (sdk_pl)
           ENTRY                   ADDRESS         REF BY
           =====                   =======         ======
           _A_PAIE_L               021A 
           LOCAL                   ADDRESS         
           =====                   =======         
           PAIE                    021A 
           PAIE_H                  021B 
           PAIE_L                  021A 
    -------------------------------------------------------------------------
DATA16_AN
  Relative segment, address: 021C - 021D (0x2 bytes), align: 0
  Segment part 7. ROOT.       Intra module refs:   init_buttons
                                                   sdk_configure_bt_uart (sdk_pl)
           ENTRY                   ADDRESS         REF BY
           =====                   =======         ======
           _A_PAIFG_L              021C 
           LOCAL                   ADDRESS         
           =====                   =======         
           PAIFG                   021C 
           PAIFG_H                 021D 
           PAIFG_L                 021C 
    -------------------------------------------------------------------------
DATA16_AN
  Relative segment, address: 021E - 021F (0x2 bytes), align: 0
  Segment part 8. ROOT.       Intra module refs:   PORT2_VECTOR_ISR
           ENTRY                   ADDRESS         REF BY
           =====                   =======         ======
           P2IV                    021E 
    -------------------------------------------------------------------------
DATA20_Z
  Relative segment, address: 37EE - 37EE (0x1 bytes), align: 0
  Segment part 11.            Intra module refs:   PORT2_VECTOR_ISR
                                                   init_buttons
           ENTRY                   ADDRESS         REF BY
           =====                   =======         ======
           debounce                37EE            TIMER1_A0_ISR (user_task)
    -------------------------------------------------------------------------
DATA20_I
  Relative segment, address: 1C3E - 1C4E (0x11 bytes), align: 0
  Segment part 12.
           ENTRY                   ADDRESS         REF BY
           =====                   =======         ======
           sdk_local_name          1C3E            hci_handle_init_sequence (hci_init)
    -------------------------------------------------------------------------
DATA20_Z
  Relative segment, address: 37EF - 37EF (0x1 bytes), align: 0
  Segment part 16.            Intra module refs:   PORT2_VECTOR_ISR
           ENTRY                   ADDRESS         REF BY
           =====                   =======         ======
           switch_pos              37EF 
    -------------------------------------------------------------------------
DATA20_Z
  Relative segment, address: 37F0 - 37F0 (0x1 bytes), align: 0
  Segment part 17.            Intra module refs:   PORT2_VECTOR_ISR
           ENTRY                   ADDRESS         REF BY
           =====                   =======         ======
           lpm_mode                37F0            BT_UART_ISR (msp430_uart)
                                                   TIMER1_A0_ISR (user_task)
    -------------------------------------------------------------------------
<CODE> 3 (was CODE)
  Relative segment, address: 00015744 - 00015771 (0x2e bytes), align: 1
  Segment part 19.
           ENTRY                   ADDRESS         REF BY
           =====                   =======         ======
           init_buttons            00015744        sdk_init_ui (sdk_pl)
               CSTACK = 00000000 ( 00000004 )
    -------------------------------------------------------------------------
ISR_CODE
  Relative segment, address: 5C64 - 5D39 (0xd6 bytes), align: 1
  Segment part 18.            Intra module refs:   PORT2_VECTOR_ISR::??INTVEC 84
           ENTRY                   ADDRESS         REF BY
           =====                   =======         ======
           PORT2_VECTOR_ISR        5C64 
               interrupt function
               calls direct
               CSTACK = 00000000 ( 00000020 )
    -------------------------------------------------------------------------
INTVEC
  Common segment, address: FF80 - FFD5 (0x56 bytes), align: 1
  Segment part 9. ROOT.
           ENTRY                   ADDRESS         REF BY
           =====                   =======         ======
           PORT2_VECTOR_ISR::??INTVEC 84
                                   FFD4 
    -------------------------------------------------------------------------
DATA20_ID
  Relative segment, address: 00020570 - 00020580 (0x11 bytes), align: 0
  Segment part 13.            Intra module refs:   sdk_local_name

    *************************************************************************

  FILE NAME : C:\Texas Instruments\EZ430-RF2560 SDK\Beta_1_0\EZ430-RF2560_Applications\Source\bluetooth\build\msp430\spp\accl\iar\release\Debug\Obj\appl_sdk.r43
  PROGRAM MODULE, NAME : appl_sdk

  SEGMENTS IN THE MODULE
  ======================
DATA20_Z
  Relative segment, address: 1CBE - 1CD9 (0x1c bytes), align: 1
  Segment part 6.             Intra module refs:   appl_acl_connection_complete_event
                                                   appl_get_free_status_instance
                                                   appl_get_status_instance_acl
                                                   appl_get_status_instance_bd_addr
                                                   appl_get_status_instance_spp
                                                   sdk_appl_init
                                                   sdk_bluetooth_menu_handler
           ENTRY                   ADDRESS         REF BY
           =====                   =======         ======
           sdk_status              1CBE            ?Subroutine0 (appl_spp)
                                                   ?Subroutine1 (appl_spp)
                                                   ?Subroutine3 (appl_spp)
                                                   appl_spp_connect (appl_spp)
                                                   appl_spp_disconnect (appl_spp)
                                                   appl_spp_l2cap_tx_queue_flow_cb (appl_spp)
                                                   appl_spp_notify_cb (appl_spp)
                                                   appl_spp_sdp_query (appl_spp)
                                                   appl_spp_write (appl_spp)
                                                   sdk_hci_event_indication_callback (appl_cb)
    -------------------------------------------------------------------------
DATA20_Z
  Relative segment, address: 37F1 - 37F1 (0x1 bytes), align: 0
  Segment part 7.             Intra module refs:   sdk_bluetooth_menu_handler
           ENTRY                   ADDRESS         REF BY
           =====                   =======         ======
           sdk_initiator           37F1            appl_spp_notify_cb (appl_spp)
                                                   sdk_hci_event_indication_callback (appl_cb)
    -------------------------------------------------------------------------
DATA20_I
  Relative segment, address: 1C4F - 1C4F (0x1 bytes), align: 0
  Segment part 8.             Intra module refs:   sdk_appl_init
                                                   sdk_bluetooth_menu_handler
           ENTRY                   ADDRESS         REF BY
           =====                   =======         ======
           sdk_bt_power            1C4F            MSP430_uart_init (msp430_uart)
                                                   sdk_bluetooth_on_complete (appl_cb)
    -------------------------------------------------------------------------
DATA20_I
  Relative segment, address: 1C50 - 1C50 (0x1 bytes), align: 0
  Segment part 10.            Intra module refs:   sdk_appl_init
           ENTRY                   ADDRESS         REF BY
           =====                   =======         ======
           sdk_bt_visible          1C50            TIMER1_A0_ISR (user_task)
                                                   sdk_hci_event_indication_callback (appl_cb)
    -------------------------------------------------------------------------
DATA20_Z
  Relative segment, address: 37F2 - 37F2 (0x1 bytes), align: 0
  Segment part 12.            Intra module refs:   appl_acl_connection_complete_event
           ENTRY                   ADDRESS         REF BY
           =====                   =======         ======
           peer_initiated_acl_connection
                                   37F2            sdk_hci_event_indication_callback (appl_cb)
    -------------------------------------------------------------------------
DATA20_Z
  Relative segment, address: 37F3 - 37F3 (0x1 bytes), align: 0
  Segment part 13.            Intra module refs:   sdk_bluetooth_menu_handler
           ENTRY                   ADDRESS         REF BY
           =====                   =======         ======
           sdk_connect_in_progress
                                   37F3            TIMER1_A0_ISR (user_task)
                                                   appl_spp_notify_cb (appl_spp)
    -------------------------------------------------------------------------
<CODE> 3 (was CODE)
  Relative segment, address: 00015056 - 0001508F (0x3a bytes), align: 1
  Segment part 35.
           ENTRY                   ADDRESS         REF BY
           =====                   =======         ======
           sdk_appl_init           00015056        main (main)
                                                   uart_error_handler (sdk_pl)
               CSTACK = 00000000 ( 00000004 )
    -------------------------------------------------------------------------
<CODE> 3 (was CODE)
  Relative segment, address: 00011C9A - 00011D3F (0xa6 bytes), align: 1
  Segment part 34.
           ENTRY                   ADDRESS         REF BY
           =====                   =======         ======
           sdk_bluetooth_menu_handler
                                   00011C9A        sdk_hci_event_indication_callback (appl_cb)
                                                   user_task_routine (user_task)
               calls direct
               CSTACK = 00000000 ( 00000008 )
    -------------------------------------------------------------------------
<CODE> 3 (was CODE)
  Relative segment, address: 000167CC - 000167D9 (0xe bytes), align: 1
  Segment part 33.
           ENTRY                   ADDRESS         REF BY
           =====                   =======         ======
           appl_bluetooth_on_complete_event_handler
                                   000167CC        ?Subroutine9 (appl_cb)
               calls direct
               CSTACK = 00000000 ( 00000004 )
    -------------------------------------------------------------------------
<CODE> 3 (was CODE)
  Relative segment, address: 00011740 - 000117ED (0xae bytes), align: 1
  Segment part 31.
           ENTRY                   ADDRESS         REF BY
           =====                   =======         ======
           appl_acl_connection_complete_event
                                   00011740        sdk_hci_event_indication_callback (appl_cb)
               calls direct
               CSTACK = 00000000 ( 00000016 )
    -------------------------------------------------------------------------
<CODE> 3 (was CODE)
  Relative segment, address: 0001637E - 0001638F (0x12 bytes), align: 1
  Segment part 32.            Intra module refs:   appl_acl_connection_complete_event
           LOCAL                   ADDRESS         
           =====                   =======         
           ?Subroutine1            0001637E 
    -------------------------------------------------------------------------
DATA20_Z
  Relative segment, address: 1CDA - 1CDB (0x2 bytes), align: 1
  Segment part 15.            Intra module refs:   appl_acceleromenter_read_spp_send
           ENTRY                   ADDRESS         REF BY
           =====                   =======         ======
           pos_x_tmp               1CDA 
    -------------------------------------------------------------------------
DATA20_Z
  Relative segment, address: 1CDC - 1CDD (0x2 bytes), align: 1
  Segment part 16.            Intra module refs:   appl_acceleromenter_read_spp_send
           ENTRY                   ADDRESS         REF BY
           =====                   =======         ======
           pos_y_tmp               1CDC 
    -------------------------------------------------------------------------
DATA20_Z
  Relative segment, address: 1CDE - 1CDF (0x2 bytes), align: 1
  Segment part 17.            Intra module refs:   appl_acceleromenter_read_spp_send
           ENTRY                   ADDRESS         REF BY
           =====                   =======         ======
           pos_z_tmp               1CDE 
    -------------------------------------------------------------------------
DATA20_Z
  Relative segment, address: 1CE0 - 1CE1 (0x2 bytes), align: 1
  Segment part 18.            Intra module refs:   appl_acceleromenter_read_spp_send
           ENTRY                   ADDRESS         REF BY
           =====                   =======         ======
           pos_x                   1CE0 
    -------------------------------------------------------------------------
DATA20_Z
  Relative segment, address: 1CE2 - 1CE3 (0x2 bytes), align: 1
  Segment part 19.            Intra module refs:   appl_acceleromenter_read_spp_send
           ENTRY                   ADDRESS         REF BY
           =====                   =======         ======
           pos_y                   1CE2 
    -------------------------------------------------------------------------
DATA20_Z
  Relative segment, address: 1CE4 - 1CE5 (0x2 bytes), align: 1
  Segment part 20.            Intra module refs:   appl_acceleromenter_read_spp_send
           ENTRY                   ADDRESS         REF BY
           =====                   =======         ======
           pos_z                   1CE4 
    -------------------------------------------------------------------------
DATA20_I
  Relative segment, address: 1C00 - 1C01 (0x2 bytes), align: 1
  Segment part 21.            Intra module refs:   appl_acceleromenter_read_spp_send
           ENTRY                   ADDRESS         REF BY
           =====                   =======         ======
           max                     1C00 
    -------------------------------------------------------------------------
<CODE> 3 (was CODE)
  Relative segment, address: 0001243C - 000124D5 (0x9a bytes), align: 1
  Segment part 29.            Intra module refs:   sdk_bluetooth_menu_handler
           ENTRY                   ADDRESS         REF BY
           =====                   =======         ======
           appl_acceleromenter_read_spp_send
                                   0001243C        appl_spp_l2cap_tx_queue_flow_cb (appl_spp)
                                                   appl_spp_notify_cb (appl_spp)
                                                   sdk_hci_event_indication_callback (appl_cb)
               calls direct
               CSTACK = 00000000 ( 00000014 )
    -------------------------------------------------------------------------
<CODE> 3 (was CODE)
  Relative segment, address: 00016BAA - 00016BAF (0x6 bytes), align: 1
  Segment part 30.            Intra module refs:   appl_acceleromenter_read_spp_send
           LOCAL                   ADDRESS         
           =====                   =======         
           ?Subroutine3            00016BAA 
    -------------------------------------------------------------------------
<CODE> 3 (was CODE)
  Relative segment, address: 00013A4C - 00013A69 (0x1e bytes), align: 1
  Segment part 24.
           ENTRY                   ADDRESS         REF BY
           =====                   =======         ======
           appl_get_status_instance_spp
                                   00013A4C        appl_spp_notify_cb (appl_spp)
               CSTACK = 00000000 ( 00000004 )
    -------------------------------------------------------------------------
<CODE> 3 (was CODE)
  Relative segment, address: 00013A6A - 00013A71 (0x8 bytes), align: 1
  Segment part 25.            Intra module refs:   appl_get_free_status_instance
                                                   appl_get_status_instance_acl
                                                   appl_get_status_instance_spp
           LOCAL                   ADDRESS         
           =====                   =======         
           ?Subroutine0            00013A6A 
    -------------------------------------------------------------------------
<CODE> 3 (was CODE)
  Relative segment, address: 00013A72 - 00013A8F (0x1e bytes), align: 1
  Segment part 26.
           ENTRY                   ADDRESS         REF BY
           =====                   =======         ======
           appl_get_status_instance_acl
                                   00013A72        sdk_hci_event_indication_callback (appl_cb)
               CSTACK = 00000000 ( 00000004 )
    -------------------------------------------------------------------------
<CODE> 3 (was CODE)
  Relative segment, address: 00013A90 - 00013A99 (0xa bytes), align: 1
  Segment part 27.            Intra module refs:   appl_get_free_status_instance
                                                   appl_get_status_instance_acl
                                                   appl_get_status_instance_spp
           LOCAL                   ADDRESS         
           =====                   =======         
           ?Subroutine2            00013A90 
    -------------------------------------------------------------------------
<CODE> 3 (was CODE)
  Relative segment, address: 00013A9A - 00013AB3 (0x1a bytes), align: 1
  Segment part 28.            Intra module refs:   appl_acl_connection_complete_event
           ENTRY                   ADDRESS         REF BY
           =====                   =======         ======
           appl_get_free_status_instance
                                   00013A9A        sdk_hci_event_indication_callback (appl_cb)
               CSTACK = 00000000 ( 00000004 )
    -------------------------------------------------------------------------
<CODE> 3 (was CODE)
  Relative segment, address: 00014EEA - 00014F27 (0x3e bytes), align: 1
  Segment part 23.            Intra module refs:   appl_acl_connection_complete_event
           ENTRY                   ADDRESS         REF BY
           =====                   =======         ======
           appl_get_status_instance_bd_addr
                                   00014EEA        appl_spp_connect (appl_spp)
                                                   appl_spp_notify_cb (appl_spp)
                                                   sdk_hci_event_indication_callback (appl_cb)
               calls direct
               CSTACK = 00000000 ( 00000014 )
    -------------------------------------------------------------------------
DATA20_ID
  Relative segment, address: 00020581 - 00020581 (0x1 bytes), align: 0
  Segment part 9.             Intra module refs:   sdk_bt_power
    -------------------------------------------------------------------------
DATA20_ID
  Relative segment, address: 00020582 - 00020582 (0x1 bytes), align: 0
  Segment part 11.            Intra module refs:   sdk_bt_visible
    -------------------------------------------------------------------------
DATA20_ID
  Relative segment, address: 00020532 - 00020533 (0x2 bytes), align: 1
  Segment part 22.            Intra module refs:   max
    -------------------------------------------------------------------------
DATA20_C
  Relative segment, address: 00017000 - 00017001 (0x2 bytes), align: 0
  Segment part 2.             Intra module refs:   appl_acceleromenter_read_spp_send
    -------------------------------------------------------------------------
DATA20_C
  Relative segment, address: 00017002 - 00017003 (0x2 bytes), align: 0
  Segment part 3.             Intra module refs:   appl_acceleromenter_read_spp_send
    -------------------------------------------------------------------------
DATA20_C
  Relative segment, address: 00017004 - 00017005 (0x2 bytes), align: 0
  Segment part 4.             Intra module refs:   appl_acceleromenter_read_spp_send
    -------------------------------------------------------------------------
DATA20_C
  Relative segment, address: 00017006 - 00017007 (0x2 bytes), align: 0
  Segment part 5.             Intra module refs:   appl_acceleromenter_read_spp_send

    *************************************************************************

  FILE NAME : C:\Texas Instruments\EZ430-RF2560 SDK\Beta_1_0\EZ430-RF2560_Applications\Source\bluetooth\build\msp430\spp\accl\iar\release\Debug\Obj\appl_spp.r43
  PROGRAM MODULE, NAME : appl_spp

  SEGMENTS IN THE MODULE
  ======================
DATA20_Z
  Relative segment, address: 1CE6 - 1CF1 (0xc bytes), align: 1
  Segment part 5.             Intra module refs:   appl_spp_sdp_callback
                                                   appl_spp_sdp_query
           LOCAL                   ADDRESS         
           =====                   =======         
           appl_spp_sdp_handle     1CE6 
    -------------------------------------------------------------------------
DATA20_Z
  Relative segment, address: 37F4 - 37F4 (0x1 bytes), align: 0
  Segment part 6.             Intra module refs:   appl_spp_sdp_callback
                                                   appl_spp_sdp_query
           LOCAL                   ADDRESS         
           =====                   =======         
           appl_spp_remote_server_ch
                                   37F4 
    -------------------------------------------------------------------------
DATA20_Z
  Relative segment, address: 37F5 - 37F5 (0x1 bytes), align: 0
  Segment part 7.             Intra module refs:   appl_spp_start
           LOCAL                   ADDRESS         
           =====                   =======         
           appl_spp_local_server_ch
                                   37F5 
    -------------------------------------------------------------------------
DATA20_Z
  Relative segment, address: 37F6 - 37F6 (0x1 bytes), align: 0
  Segment part 8.             Intra module refs:   appl_spp_l2cap_tx_queue_flow_cb
                                                   appl_spp_notify_cb
           LOCAL                   ADDRESS         
           =====                   =======         
           appl_l2cap_tx_buf_state
                                   37F6 
    -------------------------------------------------------------------------
<CODE> 3 (was CODE)
  Relative segment, address: 00013FBA - 00014017 (0x5e bytes), align: 1
  Segment part 15.            Intra module refs:   appl_spp_notify_cb
           ENTRY                   ADDRESS         REF BY
           =====                   =======         ======
           appl_spp_sdp_query      00013FBA        appl_acl_connection_complete_event (appl_sdk)
                                                   sdk_hci_event_indication_callback (appl_cb)
               calls direct
               CSTACK = 00000000 ( 00000008 )
    -------------------------------------------------------------------------
<CODE> 3 (was CODE)
  Relative segment, address: 0001666E - 0001667B (0xe bytes), align: 1
  Segment part 22.            Intra module refs:   appl_spp_disconnect
                                                   appl_spp_sdp_query
           LOCAL                   ADDRESS         
           =====                   =======         
           ?Subroutine3            0001666E 
    -------------------------------------------------------------------------
<CODE> 3 (was CODE)
  Relative segment, address: 0001625E - 0001626F (0x12 bytes), align: 1
  Segment part 23.            Intra module refs:   appl_spp_disconnect
                                                   appl_spp_sdp_query
           LOCAL                   ADDRESS         
           =====                   =======         
           ?Subroutine2            0001625E 
    -------------------------------------------------------------------------
<CODE> 3 (was CODE)
  Relative segment, address: 000113BC - 00011473 (0xb8 bytes), align: 1
  Segment part 26.            Intra module refs:   appl_spp_sdp_query
           ENTRY                   ADDRESS         REF BY
           =====                   =======         ======
           appl_spp_sdp_callback   000113BC 
               calls direct
               CSTACK = 00000000 ( 0000002E )
    -------------------------------------------------------------------------
<CODE> 3 (was CODE)
  Relative segment, address: 00014C58 - 00014C9B (0x44 bytes), align: 1
  Segment part 24.            Intra module refs:   appl_spp_sdp_callback
           ENTRY                   ADDRESS         REF BY
           =====                   =======         ======
           appl_spp_connect        00014C58 
               calls direct
               CSTACK = 00000000 ( 0000000E )
    -------------------------------------------------------------------------
<CODE> 3 (was CODE)
  Relative segment, address: 00016312 - 00016323 (0x12 bytes), align: 1
  Segment part 25.            Intra module refs:   appl_spp_connect
           LOCAL                   ADDRESS         
           =====                   =======         
           ?Subroutine4            00016312 
    -------------------------------------------------------------------------
<CODE> 3 (was CODE)
  Relative segment, address: 00015916 - 0001593D (0x28 bytes), align: 1
  Segment part 21.
           ENTRY                   ADDRESS         REF BY
           =====                   =======         ======
           appl_spp_disconnect     00015916        sdk_bluetooth_menu_handler (appl_sdk)
                                                   sdk_hci_event_indication_callback (appl_cb)
               calls direct
               CSTACK = 00000000 ( 00000008 )
    -------------------------------------------------------------------------
<CODE> 1 (was CODE)
  Relative segment, address: E7EA - E905 (0x11c bytes), align: 1
  Segment part 16.
           ENTRY                   ADDRESS         REF BY
           =====                   =======         ======
           appl_spp_notify_cb      E7EA            main (main)
               calls direct
               CSTACK = 00000000 ( 00000024 )
    -------------------------------------------------------------------------
<CODE> 3 (was CODE)
  Relative segment, address: 00015FC4 - 00015FDB (0x18 bytes), align: 1
  Segment part 17.            Intra module refs:   appl_spp_notify_cb
           LOCAL                   ADDRESS         
           =====                   =======         
           ?Subroutine1            00015FC4 
    -------------------------------------------------------------------------
<CODE> 3 (was CODE)
  Relative segment, address: 000162A6 - 000162A9 (0x4 bytes), align: 1
  Segment part 18.            Intra module refs:   ?Subroutine0
                                                   ?Subroutine1
           LOCAL                   ADDRESS         
           =====                   =======         
           ?Subroutine5            000162A6 
    -------------------------------------------------------------------------
<CODE> 3 (was CODE)
  Relative segment, address: 000162AA - 000162B7 (0xe bytes), align: 1
  Segment part 19.            Intra module refs:   ?Subroutine5
                                                   appl_spp_notify_cb
    -------------------------------------------------------------------------
<CODE> 3 (was CODE)
  Relative segment, address: 00015EA0 - 00015EB9 (0x1a bytes), align: 1
  Segment part 20.            Intra module refs:   appl_spp_notify_cb
           LOCAL                   ADDRESS         
           =====                   =======         
           ?Subroutine0            00015EA0 
    -------------------------------------------------------------------------
<CODE> 3 (was CODE)
  Relative segment, address: 00015C86 - 00015CA3 (0x1e bytes), align: 1
  Segment part 14.
           ENTRY                   ADDRESS         REF BY
           =====                   =======         ======
           appl_spp_write          00015C86        ?Subroutine3 (appl_sdk)
               calls direct
               CSTACK = 00000000 ( 00000004 )
    -------------------------------------------------------------------------
<CODE> 3 (was CODE)
  Relative segment, address: 00012AE4 - 00012B67 (0x84 bytes), align: 1
  Segment part 13.
           ENTRY                   ADDRESS         REF BY
           =====                   =======         ======
           appl_spp_start          00012AE4        appl_bluetooth_on_complete_event_handler (appl_sdk)
               calls direct
               CSTACK = 00000000 ( 0000001A )
    -------------------------------------------------------------------------
<CODE> 3 (was CODE)
  Relative segment, address: 00014E6C - 00014EAB (0x40 bytes), align: 1
  Segment part 11.            Intra module refs:   appl_spp_start
           ENTRY                   ADDRESS         REF BY
           =====                   =======         ======
           appl_spp_l2cap_tx_queue_flow_cb
                                   00014E6C 
               calls direct
               CSTACK = 00000000 ( 0000000C )
    -------------------------------------------------------------------------
<CODE> 3 (was CODE)
  Relative segment, address: 00015CFE - 00015D1B (0x1e bytes), align: 1
  Segment part 10.            Intra module refs:   appl_spp_start
           ENTRY                   ADDRESS         REF BY
           =====                   =======         ======
           appl_sm_service_cb      00015CFE 
               calls direct
               CSTACK = 00000000 ( 00000008 )
    -------------------------------------------------------------------------
<CODE> 3 (was CODE)
  Relative segment, address: 000158EE - 00015915 (0x28 bytes), align: 1
  Segment part 9.
           ENTRY                   ADDRESS         REF BY
           =====                   =======         ======
           vApplicationIdleHook    000158EE        prvIdleTask (tasks)
               CSTACK = 00000000 ( 00000004 )
    -------------------------------------------------------------------------
DATA20_C
  Relative segment, address: 00017008 - 0001700B (0x4 bytes), align: 0
  Segment part 4.             Intra module refs:   appl_spp_notify_cb

    *************************************************************************

  FILE NAME : C:\Texas Instruments\EZ430-RF2560 SDK\Beta_1_0\EZ430-RF2560_Applications\Source\bluetooth\build\msp430\spp\accl\iar\release\Debug\Obj\croutine.r43
    *************************************************************************

  FILE NAME : C:\Texas Instruments\EZ430-RF2560 SDK\Beta_1_0\EZ430-RF2560_Applications\Source\bluetooth\build\msp430\spp\accl\iar\release\Debug\Obj\hal_board.r43
  PROGRAM MODULE, NAME : hal_board

  SEGMENTS IN THE MODULE
  ======================
DATA16_AN
  Relative segment, address: 0222 - 0223 (0x2 bytes), align: 0
  Segment part 4. ROOT.       Intra module refs:   halBoardInit
           ENTRY                   ADDRESS         REF BY
           =====                   =======         ======
           _A_PBOUT_L              0222 
           LOCAL                   ADDRESS         
           =====                   =======         
           PBOUT                   0222 
           PBOUT_H                 0223 
           PBOUT_L                 0222 
    -------------------------------------------------------------------------
DATA16_AN
  Relative segment, address: 0224 - 0225 (0x2 bytes), align: 0
  Segment part 5. ROOT.       Intra module refs:   halBoardInit
           ENTRY                   ADDRESS         REF BY
           =====                   =======         ======
           _A_PBDIR_L              0224 
           LOCAL                   ADDRESS         
           =====                   =======         
           PBDIR                   0224 
           PBDIR_H                 0225 
           PBDIR_L                 0224 
    -------------------------------------------------------------------------
DATA16_AN
  Relative segment, address: 022A - 022B (0x2 bytes), align: 0
  Segment part 6. ROOT.       Intra module refs:   halBoardInit
           ENTRY                   ADDRESS         REF BY
           =====                   =======         ======
           _A_PBSEL_L              022A 
           LOCAL                   ADDRESS         
           =====                   =======         
           PBSEL                   022A 
           PBSEL_H                 022B 
           PBSEL_L                 022A 
    -------------------------------------------------------------------------
DATA16_AN
  Relative segment, address: 0242 - 0243 (0x2 bytes), align: 0
  Segment part 7. ROOT.       Intra module refs:   halBoardInit
           ENTRY                   ADDRESS         REF BY
           =====                   =======         ======
           _A_PCOUT_L              0242 
           LOCAL                   ADDRESS         
           =====                   =======         
           PCOUT                   0242 
           PCOUT_H                 0243 
           PCOUT_L                 0242 
    -------------------------------------------------------------------------
DATA16_AN
  Relative segment, address: 0244 - 0245 (0x2 bytes), align: 0
  Segment part 8. ROOT.       Intra module refs:   halBoardInit
           ENTRY                   ADDRESS         REF BY
           =====                   =======         ======
           _A_PCDIR_L              0244 
           LOCAL                   ADDRESS         
           =====                   =======         
           PCDIR                   0244 
           PCDIR_H                 0245 
           PCDIR_L                 0244 
    -------------------------------------------------------------------------
DATA16_AN
  Relative segment, address: 024A - 024B (0x2 bytes), align: 0
  Segment part 9. ROOT.       Intra module refs:   halBoardInit
           ENTRY                   ADDRESS         REF BY
           =====                   =======         ======
           _A_PCSEL_L              024A 
           LOCAL                   ADDRESS         
           =====                   =======         
           PCSEL                   024A 
           PCSEL_H                 024B 
           PCSEL_L                 024A 
    -------------------------------------------------------------------------
DATA16_AN
  Relative segment, address: 0262 - 0263 (0x2 bytes), align: 0
  Segment part 10. ROOT.      Intra module refs:   halBoardInit
                                                   validate_eval_package (bt_id_check)
           ENTRY                   ADDRESS         REF BY
           =====                   =======         ======
           _A_PDOUT_L              0262 
           LOCAL                   ADDRESS         
           =====                   =======         
           PDOUT                   0262 
           PDOUT_H                 0263 
           PDOUT_L                 0262 
    -------------------------------------------------------------------------
DATA16_AN
  Relative segment, address: 0264 - 0265 (0x2 bytes), align: 0
  Segment part 11. ROOT.      Intra module refs:   halBoardInit
           ENTRY                   ADDRESS         REF BY
           =====                   =======         ======
           _A_PDDIR_L              0264 
           LOCAL                   ADDRESS         
           =====                   =======         
           PDDIR                   0264 
           PDDIR_H                 0265 
           PDDIR_L                 0264 
    -------------------------------------------------------------------------
DATA16_AN
  Relative segment, address: 026A - 026B (0x2 bytes), align: 0
  Segment part 12. ROOT.      Intra module refs:   halBoardInit
                                                   halBoardStartXT1
           ENTRY                   ADDRESS         REF BY
           =====                   =======         ======
           _A_PDSEL_L              026A 
           LOCAL                   ADDRESS         
           =====                   =======         
           PDSEL                   026A 
           PDSEL_H                 026B 
           PDSEL_L                 026A 
    -------------------------------------------------------------------------
DATA16_AN
  Relative segment, address: 0282 - 0283 (0x2 bytes), align: 0
  Segment part 13. ROOT.      Intra module refs:   halBoardInit
                                                   halI2CShutdown (hal_i2c)
                                                   halUsbShutDown (hal_usb)
                                                   sdk_configure_bt_uart (sdk_pl)
           ENTRY                   ADDRESS         REF BY
           =====                   =======         ======
           _A_PEOUT_L              0282 
           LOCAL                   ADDRESS         
           =====                   =======         
           PEOUT                   0282 
           PEOUT_H                 0283 
           PEOUT_L                 0282 
    -------------------------------------------------------------------------
DATA16_AN
  Relative segment, address: 0284 - 0285 (0x2 bytes), align: 0
  Segment part 14. ROOT.      Intra module refs:   halBoardInit
                                                   halI2CShutdown (hal_i2c)
                                                   halUsbInit (hal_usb)
                                                   halUsbShutDown (hal_usb)
                                                   sdk_configure_bt_uart (sdk_pl)
           ENTRY                   ADDRESS         REF BY
           =====                   =======         ======
           _A_PEDIR_L              0284 
           LOCAL                   ADDRESS         
           =====                   =======         
           PEDIR                   0284 
           PEDIR_H                 0285 
           PEDIR_L                 0284 
    -------------------------------------------------------------------------
DATA16_AN
  Relative segment, address: 0286 - 0287 (0x2 bytes), align: 0
  Segment part 15. ROOT.      Intra module refs:   halBoardInit
           ENTRY                   ADDRESS         REF BY
           =====                   =======         ======
           _A_PEREN_L              0286 
           LOCAL                   ADDRESS         
           =====                   =======         
           PEREN                   0286 
           PEREN_H                 0287 
           PEREN_L                 0286 
    -------------------------------------------------------------------------
DATA16_AN
  Relative segment, address: 028A - 028B (0x2 bytes), align: 0
  Segment part 16. ROOT.      Intra module refs:   halBoardInit
                                                   halI2CInit (hal_i2c)
                                                   halI2CShutdown (hal_i2c)
                                                   halUsbInit (hal_usb)
                                                   halUsbShutDown (hal_usb)
                                                   sdk_configure_bt_uart (sdk_pl)
           ENTRY                   ADDRESS         REF BY
           =====                   =======         ======
           _A_PESEL_L              028A 
           LOCAL                   ADDRESS         
           =====                   =======         
           PESEL                   028A 
           PESEL_H                 028B 
           PESEL_L                 028A 
    -------------------------------------------------------------------------
DATA16_AN
  Relative segment, address: 02A2 - 02A3 (0x2 bytes), align: 0
  Segment part 17. ROOT.      Intra module refs:   halBoardInit
           ENTRY                   ADDRESS         REF BY
           =====                   =======         ======
           _A_PFOUT_L              02A2 
           LOCAL                   ADDRESS         
           =====                   =======         
           PFOUT                   02A2 
           PFOUT_H                 02A3 
           PFOUT_L                 02A2 
    -------------------------------------------------------------------------
DATA16_AN
  Relative segment, address: 02A4 - 02A5 (0x2 bytes), align: 0
  Segment part 18. ROOT.      Intra module refs:   halBoardInit
           ENTRY                   ADDRESS         REF BY
           =====                   =======         ======
           _A_PFDIR_L              02A4 
           LOCAL                   ADDRESS         
           =====                   =======         
           PFDIR                   02A4 
           PFDIR_H                 02A5 
           PFDIR_L                 02A4 
    -------------------------------------------------------------------------
DATA16_AN
  Relative segment, address: 02AA - 02AB (0x2 bytes), align: 0
  Segment part 19. ROOT.      Intra module refs:   halBoardInit
           ENTRY                   ADDRESS         REF BY
           =====                   =======         ======
           _A_PFSEL_L              02AA 
           LOCAL                   ADDRESS         
           =====                   =======         
           PFSEL                   02AA 
           PFSEL_H                 02AB 
           PFSEL_L                 02AA 
    -------------------------------------------------------------------------
DATA16_AN
  Relative segment, address: 0322 - 0323 (0x2 bytes), align: 0
  Segment part 20. ROOT.      Intra module refs:   halBoardInit
           ENTRY                   ADDRESS         REF BY
           =====                   =======         ======
           _A_PJOUT_L              0322 
           LOCAL                   ADDRESS         
           =====                   =======         
           PJOUT                   0322 
           PJOUT_H                 0323 
           PJOUT_L                 0322 
    -------------------------------------------------------------------------
DATA16_AN
  Relative segment, address: 0324 - 0325 (0x2 bytes), align: 0
  Segment part 21. ROOT.      Intra module refs:   halBoardInit
           ENTRY                   ADDRESS         REF BY
           =====                   =======         ======
           _A_PJDIR_L              0324 
           LOCAL                   ADDRESS         
           =====                   =======         
           PJDIR                   0324 
           PJDIR_H                 0325 
           PJDIR_L                 0324 
    -------------------------------------------------------------------------
DATA16_AN
  Relative segment, address: 0120 - 0121 (0x2 bytes), align: 0
  Segment part 22. ROOT.      Intra module refs:   halBoardSetVCore
                                                   halBoardSetVCoreUp
           ENTRY                   ADDRESS         REF BY
           =====                   =======         ======
           _A_PMMCTL0_L            0120 
           LOCAL                   ADDRESS         
           =====                   =======         
           PMMCTL0                 0120 
           PMMCTL0_H               0121 
           PMMCTL0_L               0120 
    -------------------------------------------------------------------------
DATA16_AN
  Relative segment, address: 0122 - 0123 (0x2 bytes), align: 0
  Segment part 23. ROOT.
           ENTRY                   ADDRESS         REF BY
           =====                   =======         ======
           _A_PMMCTL1_L            0122 
           LOCAL                   ADDRESS         
           =====                   =======         
           PMMCTL1                 0122 
           PMMCTL1_H               0123 
           PMMCTL1_L               0122 
    -------------------------------------------------------------------------
DATA16_AN
  Relative segment, address: 0124 - 0125 (0x2 bytes), align: 0
  Segment part 24. ROOT.      Intra module refs:   halBoardSetVCoreUp
           ENTRY                   ADDRESS         REF BY
           =====                   =======         ======
           _A_SVSMHCTL_L           0124 
           LOCAL                   ADDRESS         
           =====                   =======         
           SVSMHCTL                0124 
           SVSMHCTL_H              0125 
           SVSMHCTL_L              0124 
    -------------------------------------------------------------------------
DATA16_AN
  Relative segment, address: 0126 - 0127 (0x2 bytes), align: 0
  Segment part 25. ROOT.      Intra module refs:   halBoardSetVCore
                                                   halBoardSetVCoreUp
           ENTRY                   ADDRESS         REF BY
           =====                   =======         ======
           _A_SVSMLCTL_L           0126 
           LOCAL                   ADDRESS         
           =====                   =======         
           SVSMLCTL                0126 
           SVSMLCTL_H              0127 
           SVSMLCTL_L              0126 
    -------------------------------------------------------------------------
DATA16_AN
  Relative segment, address: 012C - 012D (0x2 bytes), align: 0
  Segment part 26. ROOT.      Intra module refs:   halBoardSetVCore
                                                   halBoardSetVCoreUp
           ENTRY                   ADDRESS         REF BY
           =====                   =======         ======
           _A_PMMIFG_L             012C 
           LOCAL                   ADDRESS         
           =====                   =======         
           PMMIFG                  012C 
           PMMIFG_H                012D 
           PMMIFG_L                012C 
    -------------------------------------------------------------------------
DATA16_AN
  Relative segment, address: 0102 - 0103 (0x2 bytes), align: 0
  Segment part 27. ROOT.      Intra module refs:   halBoardSetSystemClock
                                                   halBoardStartXT1
           ENTRY                   ADDRESS         REF BY
           =====                   =======         ======
           _A_SFRIFG1_L            0102 
           LOCAL                   ADDRESS         
           =====                   =======         
           SFRIFG1                 0102 
           SFRIFG1_H               0103 
           SFRIFG1_L               0102 
    -------------------------------------------------------------------------
DATA16_AN
  Relative segment, address: 0160 - 0161 (0x2 bytes), align: 0
  Segment part 28. ROOT.      Intra module refs:   halBoardSetSystemClock
           ENTRY                   ADDRESS         REF BY
           =====                   =======         ======
           _A_UCSCTL0_L            0160 
           LOCAL                   ADDRESS         
           =====                   =======         
           UCSCTL0                 0160 
           UCSCTL0_H               0161 
           UCSCTL0_L               0160 
    -------------------------------------------------------------------------
DATA16_AN
  Relative segment, address: 0162 - 0163 (0x2 bytes), align: 0
  Segment part 29. ROOT.      Intra module refs:   halBoardSetSystemClock
           ENTRY                   ADDRESS         REF BY
           =====                   =======         ======
           _A_UCSCTL1_L            0162 
           LOCAL                   ADDRESS         
           =====                   =======         
           UCSCTL1                 0162 
           UCSCTL1_H               0163 
           UCSCTL1_L               0162 
    -------------------------------------------------------------------------
DATA16_AN
  Relative segment, address: 0164 - 0165 (0x2 bytes), align: 0
  Segment part 30. ROOT.      Intra module refs:   halBoardSetSystemClock
           ENTRY                   ADDRESS         REF BY
           =====                   =======         ======
           _A_UCSCTL2_L            0164 
           LOCAL                   ADDRESS         
           =====                   =======         
           UCSCTL2                 0164 
           UCSCTL2_H               0165 
           UCSCTL2_L               0164 
    -------------------------------------------------------------------------
DATA16_AN
  Relative segment, address: 0168 - 0169 (0x2 bytes), align: 0
  Segment part 31. ROOT.      Intra module refs:   halBoardSetSystemClock
           ENTRY                   ADDRESS         REF BY
           =====                   =======         ======
           _A_UCSCTL4_L            0168 
           LOCAL                   ADDRESS         
           =====                   =======         
           UCSCTL4                 0168 
           UCSCTL4_H               0169 
           UCSCTL4_L               0168 
    -------------------------------------------------------------------------
DATA16_AN
  Relative segment, address: 016C - 016D (0x2 bytes), align: 0
  Segment part 32. ROOT.      Intra module refs:   halBoardStartXT1
           ENTRY                   ADDRESS         REF BY
           =====                   =======         ======
           _A_UCSCTL6_L            016C 
           LOCAL                   ADDRESS         
           =====                   =======         
           UCSCTL6                 016C 
           UCSCTL6_H               016D 
           UCSCTL6_L               016C 
    -------------------------------------------------------------------------
DATA16_AN
  Relative segment, address: 016E - 016F (0x2 bytes), align: 0
  Segment part 33. ROOT.      Intra module refs:   halBoardSetSystemClock
                                                   halBoardStartXT1
           ENTRY                   ADDRESS         REF BY
           =====                   =======         ======
           _A_UCSCTL7_L            016E 
           LOCAL                   ADDRESS         
           =====                   =======         
           UCSCTL7                 016E 
           UCSCTL7_H               016F 
           UCSCTL7_L               016E 
    -------------------------------------------------------------------------
<CODE> 1 (was CODE)
  Relative segment, address: A310 - A375 (0x66 bytes), align: 1
  Segment part 38.            Intra module refs:   halBoardSetVCore
           LOCAL                   ADDRESS         
           =====                   =======         
           halBoardSetVCoreUp      A310 
               CSTACK = 00000000 ( 00000004 )
    -------------------------------------------------------------------------
<CODE> 1 (was CODE)
  Relative segment, address: A376 - A37B (0x6 bytes), align: 1
  Segment part 39.            Intra module refs:   halBoardSetVCoreUp
           LOCAL                   ADDRESS         
           =====                   =======         
           ?Subroutine0            A376 
    -------------------------------------------------------------------------
<CODE> 1 (was CODE)
  Relative segment, address: A37C - A3D7 (0x5c bytes), align: 1
  Segment part 40.            Intra module refs:   halBoardSetSystemClock
           ENTRY                   ADDRESS         REF BY
           =====                   =======         ======
           halBoardSetVCore        A37C 
               calls direct
               CSTACK = 00000000 ( 0000000C )
    -------------------------------------------------------------------------
<CODE> 1 (was CODE)
  Relative segment, address: A3D8 - A48B (0xb4 bytes), align: 1
  Segment part 41.            Intra module refs:   halBoardSetSystemClock
           LOCAL                   ADDRESS         
           =====                   =======         
           halBoardGetSystemClockSettings
                                   A3D8 
               CSTACK = 00000000 ( 00000004 )
    -------------------------------------------------------------------------
<CODE> 1 (was CODE)
  Relative segment, address: A48C - A4EB (0x60 bytes), align: 1
  Segment part 42.
           ENTRY                   ADDRESS         REF BY
           =====                   =======         ======
           halBoardSetSystemClock
                                   A48C            sdk_set_frequency (sdk_pl)
               calls direct
               CSTACK = 00000000 ( 00000008 )
    -------------------------------------------------------------------------
<CODE> 1 (was CODE)
  Relative segment, address: A4EC - A515 (0x2a bytes), align: 1
  Segment part 43.
           ENTRY                   ADDRESS         REF BY
           =====                   =======         ======
           halBoardStartXT1        A4EC            sdk_init_bsp (sdk_pl)
               CSTACK = 00000000 ( 00000004 )
    -------------------------------------------------------------------------
<CODE> 1 (was CODE)
  Relative segment, address: A516 - A57D (0x68 bytes), align: 1
  Segment part 35.
           ENTRY                   ADDRESS         REF BY
           =====                   =======         ======
           halBoardInit            A516            sdk_init_bsp (sdk_pl)
               CSTACK = 00000000 ( 00000004 )

    *************************************************************************

  FILE NAME : C:\Texas Instruments\EZ430-RF2560 SDK\Beta_1_0\EZ430-RF2560_Applications\Source\bluetooth\build\msp430\spp\accl\iar\release\Debug\Obj\hal_i2c.r43
  PROGRAM MODULE, NAME : hal_i2c

  SEGMENTS IN THE MODULE
  ======================
DATA16_AN
  Relative segment, address: 0200 - 0201 (0x2 bytes), align: 0
  Segment part 1. ROOT.       Intra module refs:   halAccRead
                                                   sdk_configure_bt_uart (sdk_pl)
           ENTRY                   ADDRESS         REF BY
           =====                   =======         ======
           _A_PAIN_L               0200 
           LOCAL                   ADDRESS         
           =====                   =======         
           PAIN                    0200 
           PAIN_H                  0201 
           PAIN_L                  0200 
    -------------------------------------------------------------------------
DATA16_AN
  Relative segment, address: 06A0 - 06A1 (0x2 bytes), align: 0
  Segment part 7. ROOT.       Intra module refs:   halI2CInit
                                                   halI2CRead1ByteRegister
                                                   halI2CRead2ByteRegister
                                                   halI2CSetSlaveAddress
                                                   halI2CShutdown
                                                   halI2CWriteRegister
           ENTRY                   ADDRESS         REF BY
           =====                   =======         ======
           _A_UCB3CTLW0_L          06A0 
           LOCAL                   ADDRESS         
           =====                   =======         
           UCB3CTLW0               06A0 
           UCB3CTLW0_H             06A1 
           UCB3CTLW0_L             06A0 
    -------------------------------------------------------------------------
DATA16_AN
  Relative segment, address: 06A6 - 06A7 (0x2 bytes), align: 0
  Segment part 8. ROOT.       Intra module refs:   halI2CInit
           ENTRY                   ADDRESS         REF BY
           =====                   =======         ======
           _A_UCB3BRW_L            06A6 
           LOCAL                   ADDRESS         
           =====                   =======         
           UCB3BRW                 06A6 
           UCB3BRW_H               06A7 
           UCB3BRW_L               06A6 
    -------------------------------------------------------------------------
DATA16_AN
  Relative segment, address: 06AC - 06AC (0x1 bytes), align: 0
  Segment part 9. ROOT.       Intra module refs:   halI2CRead1ByteRegister
                                                   halI2CRead2ByteRegister
           ENTRY                   ADDRESS         REF BY
           =====                   =======         ======
           UCB3RXBUF               06AC 
    -------------------------------------------------------------------------
DATA16_AN
  Relative segment, address: 06AE - 06AE (0x1 bytes), align: 0
  Segment part 10. ROOT.      Intra module refs:   halI2CRead1ByteRegister
                                                   halI2CRead2ByteRegister
                                                   halI2CWriteRegister
           ENTRY                   ADDRESS         REF BY
           =====                   =======         ======
           UCB3TXBUF               06AE 
    -------------------------------------------------------------------------
DATA16_AN
  Relative segment, address: 06B2 - 06B3 (0x2 bytes), align: 0
  Segment part 11. ROOT.      Intra module refs:   halI2CSetSlaveAddress
           ENTRY                   ADDRESS         REF BY
           =====                   =======         ======
           _A_UCB3I2CSA_L          06B2 
           LOCAL                   ADDRESS         
           =====                   =======         
           UCB3I2CSA               06B2 
           UCB3I2CSA_H             06B3 
           UCB3I2CSA_L             06B2 
    -------------------------------------------------------------------------
DATA16_AN
  Relative segment, address: 06BC - 06BD (0x2 bytes), align: 0
  Segment part 12. ROOT.      Intra module refs:   halI2CRead1ByteRegister
                                                   halI2CRead2ByteRegister
                                                   halI2CWriteRegister
           ENTRY                   ADDRESS         REF BY
           =====                   =======         ======
           _A_UCB3ICTL_L           06BC 
           LOCAL                   ADDRESS         
           =====                   =======         
           UCB3ICTL                06BC 
           UCB3ICTL_H              06BD 
           UCB3ICTL_L              06BC 
    -------------------------------------------------------------------------
<CODE> 1 (was CODE)
  Relative segment, address: C322 - C32B (0xa bytes), align: 1
  Segment part 15.            Intra module refs:   ?Subroutine3
                                                   ?Subroutine4
           ENTRY                   ADDRESS         REF BY
           =====                   =======         ======
           halI2CSetSlaveAddress   C322 
               CSTACK = 00000000 ( 00000004 )
    -------------------------------------------------------------------------
<CODE> 1 (was CODE)
  Relative segment, address: C32C - C331 (0x6 bytes), align: 1
  Segment part 16.            Intra module refs:   halI2CInit
                                                   halI2CSetSlaveAddress
           LOCAL                   ADDRESS         
           =====                   =======         
           ?Subroutine0            C32C 
    -------------------------------------------------------------------------
<CODE> 1 (was CODE)
  Relative segment, address: C332 - C337 (0x6 bytes), align: 1
  Segment part 17.
           ENTRY                   ADDRESS         REF BY
           =====                   =======         ======
           halTempStop             C332            sdk_sensor_init (sdk_pl)
               calls direct
               CSTACK = 00000000 ( 00000004 )
    -------------------------------------------------------------------------
<CODE> 1 (was CODE)
  Relative segment, address: C338 - C33D (0x6 bytes), align: 1
  Segment part 18.            Intra module refs:   halTempStart
                                                   halTempStop
           LOCAL                   ADDRESS         
           =====                   =======         
           ?Subroutine1            C338 
    -------------------------------------------------------------------------
<CODE> 1 (was CODE)
  Relative segment, address: C33E - C371 (0x34 bytes), align: 1
  Segment part 19.            Intra module refs:   halTempRead
           ENTRY                   ADDRESS         REF BY
           =====                   =======         ======
           halI2CRead2ByteRegister
                                   C33E 
               CSTACK = 00000000 ( 00000006 )
    -------------------------------------------------------------------------
<CODE> 1 (was CODE)
  Relative segment, address: C372 - C37B (0xa bytes), align: 1
  Segment part 20.
           ENTRY                   ADDRESS         REF BY
           =====                   =======         ======
           halTempRead             C372            sdk_sensor_init (sdk_pl)
               calls direct
               CSTACK = 00000000 ( 00000004 )
    -------------------------------------------------------------------------
<CODE> 1 (was CODE)
  Relative segment, address: C37C - C383 (0x8 bytes), align: 1
  Segment part 21.            Intra module refs:   halTempRead
                                                   halTempStart
                                                   halTempStop
           LOCAL                   ADDRESS         
           =====                   =======         
           ?Subroutine3            C37C 
    -------------------------------------------------------------------------
<CODE> 1 (was CODE)
  Relative segment, address: C384 - C399 (0x16 bytes), align: 1
  Segment part 22.
           ENTRY                   ADDRESS         REF BY
           =====                   =======         ======
           halTempStart            C384            sdk_sensor_init (sdk_pl)
               calls direct
               CSTACK = 00000000 ( 00000004 )
    -------------------------------------------------------------------------
<CODE> 1 (was CODE)
  Relative segment, address: C39A - C3B7 (0x1e bytes), align: 1
  Segment part 23.
           ENTRY                   ADDRESS         REF BY
           =====                   =======         ======
           halAccStop              C39A            TIMER1_A0_ISR (user_task)
               calls direct
               CSTACK = 00000000 ( 00000004 )
    -------------------------------------------------------------------------
<CODE> 1 (was CODE)
  Relative segment, address: C3B8 - C3D5 (0x1e bytes), align: 1
  Segment part 24.            Intra module refs:   halAccRead
                                                   halAccStart
           ENTRY                   ADDRESS         REF BY
           =====                   =======         ======
           halI2CRead1ByteRegister
                                   C3B8 
               CSTACK = 00000000 ( 00000004 )
    -------------------------------------------------------------------------
<CODE> 1 (was CODE)
  Relative segment, address: C3D6 - C3EF (0x1a bytes), align: 1
  Segment part 25.            Intra module refs:   halI2CRead1ByteRegister
                                                   halI2CRead2ByteRegister
           LOCAL                   ADDRESS         
           =====                   =======         
           ?Subroutine2            C3D6 
    -------------------------------------------------------------------------
<CODE> 1 (was CODE)
  Relative segment, address: C3F0 - C407 (0x18 bytes), align: 1
  Segment part 26.            Intra module refs:   ?Subroutine2
                                                   halI2CWriteRegister
           LOCAL                   ADDRESS         
           =====                   =======         
           ?Subroutine5            C3F0 
    -------------------------------------------------------------------------
<CODE> 1 (was CODE)
  Relative segment, address: C408 - C443 (0x3c bytes), align: 1
  Segment part 27.
           ENTRY                   ADDRESS         REF BY
           =====                   =======         ======
           halAccRead              C408            accelerometer_read_cord (accelerometer_pl)
               calls direct
               CSTACK = 00000000 ( 00000004 )
    -------------------------------------------------------------------------
<CODE> 1 (was CODE)
  Relative segment, address: C444 - C44B (0x8 bytes), align: 1
  Segment part 28.            Intra module refs:   halAccRead
                                                   halAccStart
                                                   halAccStop
           LOCAL                   ADDRESS         
           =====                   =======         
           ?Subroutine4            C444 
    -------------------------------------------------------------------------
<CODE> 1 (was CODE)
  Relative segment, address: C44C - C467 (0x1c bytes), align: 1
  Segment part 29.
           ENTRY                   ADDRESS         REF BY
           =====                   =======         ======
           halAccStart             C44C            accelerometer_init (accelerometer_pl)
               calls direct
               CSTACK = 00000000 ( 00000004 )
    -------------------------------------------------------------------------
<CODE> 1 (was CODE)
  Relative segment, address: C468 - C47F (0x18 bytes), align: 1
  Segment part 30.
           ENTRY                   ADDRESS         REF BY
           =====                   =======         ======
           halI2CShutdown          C468            TIMER1_A0_ISR (user_task)
               CSTACK = 00000000 ( 00000004 )
    -------------------------------------------------------------------------
<CODE> 1 (was CODE)
  Relative segment, address: C480 - C4EF (0x70 bytes), align: 1
  Segment part 31.
           ENTRY                   ADDRESS         REF BY
           =====                   =======         ======
           halI2CInit              C480            sdk_sensor_init (sdk_pl)
               CSTACK = 00000000 ( 00000004 )
    -------------------------------------------------------------------------
<CODE> 3 (was CODE)
  Relative segment, address: 00015D58 - 00015D75 (0x1e bytes), align: 1
  Segment part 14.            Intra module refs:   ?Subroutine1
                                                   halAccStart
                                                   halAccStop
           ENTRY                   ADDRESS         REF BY
           =====                   =======         ======
           halI2CWriteRegister     00015D58 
               CSTACK = 00000000 ( 00000004 )

    *************************************************************************

  FILE NAME : C:\Texas Instruments\EZ430-RF2560 SDK\Beta_1_0\EZ430-RF2560_Applications\Source\bluetooth\build\msp430\spp\accl\iar\release\Debug\Obj\hal_tlv.r43
  PROGRAM MODULE, NAME : hal_tlv

  SEGMENTS IN THE MODULE
  ======================
<CODE> 3 (was CODE)
  Relative segment, address: 00015966 - 0001598D (0x28 bytes), align: 1
  Segment part 2.
           ENTRY                   ADDRESS         REF BY
           =====                   =======         ======
           Get_Device_Type         00015966        halBoardSetVCore (hal_board)
                                                   update_bt_version (bt_id_check)
               CSTACK = 00000000 ( 00000004 )

    *************************************************************************

  FILE NAME : C:\Texas Instruments\EZ430-RF2560 SDK\Beta_1_0\EZ430-RF2560_Applications\Source\bluetooth\build\msp430\spp\accl\iar\release\Debug\Obj\hal_usb.r43
  PROGRAM MODULE, NAME : hal_usb

  SEGMENTS IN THE MODULE
  ======================
DATA16_AN
  Relative segment, address: 060C - 060C (0x1 bytes), align: 0
  Segment part 4. ROOT.       Intra module refs:   USCI_A1_ISR
           ENTRY                   ADDRESS         REF BY
           =====                   =======         ======
           UCA1RXBUF               060C 
    -------------------------------------------------------------------------
DATA16_AN
  Relative segment, address: 0680 - 0681 (0x2 bytes), align: 0
  Segment part 5. ROOT.       Intra module refs:   halUsbInit
                                                   halUsbShutDown
           ENTRY                   ADDRESS         REF BY
           =====                   =======         ======
           _A_UCA3CTLW0_L          0680 
           LOCAL                   ADDRESS         
           =====                   =======         
           UCA3CTLW0               0680 
           UCA3CTLW0_H             0681 
           UCA3CTLW0_L             0680 
    -------------------------------------------------------------------------
DATA16_AN
  Relative segment, address: 0686 - 0687 (0x2 bytes), align: 0
  Segment part 6. ROOT.       Intra module refs:   halUsbInit
           ENTRY                   ADDRESS         REF BY
           =====                   =======         ======
           _A_UCA3BRW_L            0686 
           LOCAL                   ADDRESS         
           =====                   =======         
           UCA3BRW                 0686 
           UCA3BRW_H               0687 
           UCA3BRW_L               0686 
    -------------------------------------------------------------------------
DATA16_AN
  Relative segment, address: 0688 - 0688 (0x1 bytes), align: 0
  Segment part 7. ROOT.       Intra module refs:   halUsbInit
           ENTRY                   ADDRESS         REF BY
           =====                   =======         ======
           UCA3MCTL                0688 
    -------------------------------------------------------------------------
DATA16_AN
  Relative segment, address: 068E - 068E (0x1 bytes), align: 0
  Segment part 8. ROOT.
           ENTRY                   ADDRESS         REF BY
           =====                   =======         ======
           UCA3TXBUF               068E 
    -------------------------------------------------------------------------
DATA16_AN
  Relative segment, address: 069C - 069D (0x2 bytes), align: 0
  Segment part 9. ROOT.       Intra module refs:   halUsbInit
                                                   halUsbShutDown
           ENTRY                   ADDRESS         REF BY
           =====                   =======         ======
           _A_UCA3ICTL_L           069C 
           LOCAL                   ADDRESS         
           =====                   =======         
           UCA3ICTL                069C 
           UCA3ICTL_H              069D 
           UCA3ICTL_L              069C 
    -------------------------------------------------------------------------
DATA20_Z
  Relative segment, address: 37F7 - 38F5 (0xff bytes), align: 0
  Segment part 12.            Intra module refs:   USCI_A1_ISR
                                                   halUsbInit
           ENTRY                   ADDRESS         REF BY
           =====                   =======         ======
           halUsbReceiveBuffer     37F7 
    -------------------------------------------------------------------------
DATA20_Z
  Relative segment, address: 38F6 - 38F6 (0x1 bytes), align: 0
  Segment part 13.            Intra module refs:   USCI_A1_ISR
                                                   halUsbInit
           ENTRY                   ADDRESS         REF BY
           =====                   =======         ======
           bufferSize              38F6 
    -------------------------------------------------------------------------
<CODE> 3 (was CODE)
  Relative segment, address: 0001118A - 00011245 (0xbc bytes), align: 1
  Segment part 18.
           ENTRY                   ADDRESS         REF BY
           =====                   =======         ======
           halUsbInit              0001118A        restore_peripheral_status (sdk_pl)
                                                   sdk_init_bsp (sdk_pl)
               CSTACK = 00000000 ( 00000006 )
    -------------------------------------------------------------------------
<CODE> 3 (was CODE)
  Relative segment, address: 00015B6A - 00015B8B (0x22 bytes), align: 1
  Segment part 17.
           ENTRY                   ADDRESS         REF BY
           =====                   =======         ======
           halUsbShutDown          00015B6A        TIMER1_A0_ISR (user_task)
               CSTACK = 00000000 ( 00000004 )
    -------------------------------------------------------------------------
ISR_CODE
  Relative segment, address: 5D3A - 5D59 (0x20 bytes), align: 1
  Segment part 14.            Intra module refs:   USCI_A1_ISR::??INTVEC 92
           ENTRY                   ADDRESS         REF BY
           =====                   =======         ======
           USCI_A1_ISR             5D3A 
               interrupt function
               CSTACK = 00000000 ( 00000008 )
    -------------------------------------------------------------------------
INTVEC
  Common segment, address: FF80 - FFDD (0x5e bytes), align: 1
  Segment part 10. ROOT.
           ENTRY                   ADDRESS         REF BY
           =====                   =======         ======
           USCI_A1_ISR::??INTVEC 92
                                   FFDC 

    *************************************************************************

  FILE NAME : C:\Texas Instruments\EZ430-RF2560 SDK\Beta_1_0\EZ430-RF2560_Applications\Source\bluetooth\build\msp430\spp\accl\iar\release\Debug\Obj\heap_2.r43
  PROGRAM MODULE, NAME : heap_2

  SEGMENTS IN THE MODULE
  ======================
DATA20_Z
  Relative segment, address: 1CF2 - 29A3 (0xcb2 bytes), align: 1
  Segment part 2.             Intra module refs:   pvPortMalloc
           LOCAL                   ADDRESS         
           =====                   =======         
           xHeap                   1CF2 
    -------------------------------------------------------------------------
DATA20_Z
  Relative segment, address: 29A4 - 29AB (0x8 bytes), align: 1
  Segment part 3.             Intra module refs:   pvPortMalloc
                                                   vPortFree
           LOCAL                   ADDRESS         
           =====                   =======         
           xStart                  29A4 
    -------------------------------------------------------------------------
DATA20_Z
  Relative segment, address: 29AC - 29B3 (0x8 bytes), align: 1
  Segment part 4.             Intra module refs:   pvPortMalloc
           LOCAL                   ADDRESS         
           =====                   =======         
           xEnd                    29AC 
    -------------------------------------------------------------------------
DATA20_Z
  Relative segment, address: 29B4 - 29B7 (0x4 bytes), align: 1
  Segment part 5.             Intra module refs:   pvPortMalloc
                                                   vPortFree
           LOCAL                   ADDRESS         
           =====                   =======         
           xFreeBytesRemaining     29B4 
    -------------------------------------------------------------------------
<CODE> 1 (was CODE)
  Relative segment, address: E350 - E47D (0x12e bytes), align: 1
  Segment part 10.
           ENTRY                   ADDRESS         REF BY
           =====                   =======         ======
           pvPortMalloc            E350            ?Subroutine15 (queue)
                                                   prvAllocateTCBAndStack (tasks)
                                                   xQueueCreate (queue)
               calls direct
               CSTACK = 00000000 ( 0000001C )
    -------------------------------------------------------------------------
DATA20_Z
  Relative segment, address: 29B8 - 29B9 (0x2 bytes), align: 1
  Segment part 6.             Intra module refs:   pvPortMalloc
           LOCAL                   ADDRESS         
           =====                   =======         
           pvPortMalloc::xHeapHasBeenInitialised
                                   29B8 
    -------------------------------------------------------------------------
<CODE> 3 (was CODE)
  Relative segment, address: 00014484 - 000144D5 (0x52 bytes), align: 1
  Segment part 9.
           ENTRY                   ADDRESS         REF BY
           =====                   =======         ======
           vPortFree               00014484        prvAllocateTCBAndStack (tasks)
                                                   prvCheckTasksWaitingTermination (tasks)
                                                   xQueueCreate (queue)
               calls direct
               CSTACK = 00000000 ( 00000014 )

    *************************************************************************

  FILE NAME : C:\Texas Instruments\EZ430-RF2560 SDK\Beta_1_0\EZ430-RF2560_Applications\Source\bluetooth\build\msp430\spp\accl\iar\release\Debug\Obj\heap_bt.r43
  PROGRAM MODULE, NAME : heap_bt

  SEGMENTS IN THE MODULE
  ======================
DATA20_Z
  Relative segment, address: 38F7 - 3DA6 (0x4b0 bytes), align: 0
  Segment part 2.             Intra module refs:   os_malloc
           ENTRY                   ADDRESS         REF BY
           =====                   =======         ======
           heap_memory             38F7            BT_os_init (BT_os)
    -------------------------------------------------------------------------
DATA20_Z
  Relative segment, address: 29BA - 2A11 (0x58 bytes), align: 1
  Segment part 3.             Intra module refs:   OS_allocate_buffer
                                                   OS_create_pool
                                                   OS_deallocate_buffer
                                                   sdk_buffer_mgmt_init
           ENTRY                   ADDRESS         REF BY
           =====                   =======         ======
           pool_mgr                29BA 
    -------------------------------------------------------------------------
DATA20_Z
  Relative segment, address: 2A12 - 2A13 (0x2 bytes), align: 1
  Segment part 4.             Intra module refs:   os_malloc
           ENTRY                   ADDRESS         REF BY
           =====                   =======         ======
           heap_pointer            2A12            BT_os_init (BT_os)
    -------------------------------------------------------------------------
<CODE> 2 (was CODE)
  Relative segment, address: FD5A - FE45 (0xec bytes), align: 1
  Segment part 15.
           ENTRY                   ADDRESS         REF BY
           =====                   =======         ======
           OS_create_pool          FD5A            BT_os_init (BT_os)
               calls direct
               CSTACK = 00000000 ( 00000026 )
    -------------------------------------------------------------------------
<CODE> 3 (was CODE)
  Relative segment, address: 00015090 - 000150C9 (0x3a bytes), align: 1
  Segment part 14.
           ENTRY                   ADDRESS         REF BY
           =====                   =======         ======
           sdk_buffer_mgmt_init    00015090        main (main)
               CSTACK = 00000000 ( 00000004 )
    -------------------------------------------------------------------------
<CODE> 3 (was CODE)
  Relative segment, address: 000144D6 - 00014527 (0x52 bytes), align: 1
  Segment part 12.
           ENTRY                   ADDRESS         REF BY
           =====                   =======         ======
           OS_allocate_buffer      000144D6        BT_alloc_mem (BT_os)
               calls direct
               CSTACK = 00000000 ( 0000000C )
    -------------------------------------------------------------------------
<CODE> 3 (was CODE)
  Relative segment, address: 000169AC - 000169B5 (0xa bytes), align: 1
  Segment part 13.            Intra module refs:   OS_allocate_buffer
                                                   OS_deallocate_buffer
           LOCAL                   ADDRESS         
           =====                   =======         
           ?Subroutine0            000169AC 
    -------------------------------------------------------------------------
<CODE> 1 (was CODE)
  Relative segment, address: F18E - F291 (0x104 bytes), align: 1
  Segment part 10.
           ENTRY                   ADDRESS         REF BY
           =====                   =======         ======
           OS_deallocate_buffer    F18E            BT_free_mem (BT_os)
               calls direct
               CSTACK = 00000000 ( 0000002A )
    -------------------------------------------------------------------------
<CODE> 3 (was CODE)
  Relative segment, address: 000167B0 - 000167BD (0xe bytes), align: 1
  Segment part 11.            Intra module refs:   OS_deallocate_buffer
           LOCAL                   ADDRESS         
           =====                   =======         
           ?Subroutine1            000167B0 
    -------------------------------------------------------------------------
<CODE> 3 (was CODE)
  Relative segment, address: 000152CA - 00015301 (0x38 bytes), align: 1
  Segment part 8.             Intra module refs:   OS_create_pool
                                                   OS_stack_init
           ENTRY                   ADDRESS         REF BY
           =====                   =======         ======
           os_malloc               000152CA 
               CSTACK = 00000000 ( 0000000C )
    -------------------------------------------------------------------------
<CODE> 3 (was CODE)
  Relative segment, address: 0001461A - 00014669 (0x50 bytes), align: 1
  Segment part 9.             Intra module refs:   OS_create_pool
           ENTRY                   ADDRESS         REF BY
           =====                   =======         ======
           OS_stack_init           0001461A 
               calls direct
               CSTACK = 00000000 ( 00000014 )
    -------------------------------------------------------------------------
<CODE> 3 (was CODE)
  Relative segment, address: 00014B48 - 00014B8B (0x44 bytes), align: 1
  Segment part 7.             Intra module refs:   OS_create_pool
                                                   OS_deallocate_buffer
           ENTRY                   ADDRESS         REF BY
           =====                   =======         ======
           OS_stack_push           00014B48 
               CSTACK = 00000000 ( 00000004 )
    -------------------------------------------------------------------------
<CODE> 3 (was CODE)
  Relative segment, address: 00014EAC - 00014EE9 (0x3e bytes), align: 1
  Segment part 6.             Intra module refs:   OS_allocate_buffer
           ENTRY                   ADDRESS         REF BY
           =====                   =======         ======
           OS_stack_pop            00014EAC 
               CSTACK = 00000000 ( 00000008 )
    -------------------------------------------------------------------------
<CODE> 3 (was CODE)
  Relative segment, address: 000149A6 - 000149EB (0x46 bytes), align: 1
  Segment part 5.             Intra module refs:   OS_deallocate_buffer
           ENTRY                   ADDRESS         REF BY
           =====                   =======         ======
           OS_stack_search_item    000149A6 
               CSTACK = 00000000 ( 00000014 )

    *************************************************************************

  FILE NAME : C:\Texas Instruments\EZ430-RF2560 SDK\Beta_1_0\EZ430-RF2560_Applications\Source\bluetooth\build\msp430\spp\accl\iar\release\Debug\Obj\list.r43
  PROGRAM MODULE, NAME : list

  SEGMENTS IN THE MODULE
  ======================
<CODE> 3 (was CODE)
  Relative segment, address: 00015DB0 - 00015DCB (0x1c bytes), align: 1
  Segment part 6.
           ENTRY                   ADDRESS         REF BY
           =====                   =======         ======
           vListInitialise         00015DB0        prvInitialiseTaskLists (tasks)
                                                   xQueueCreate (queue)
                                                   xQueueCreateMutex (queue)
               CSTACK = 00000000 ( 00000004 )
    -------------------------------------------------------------------------
<CODE> 3 (was CODE)
  Relative segment, address: 00016B06 - 00016B0D (0x8 bytes), align: 1
  Segment part 5.
           ENTRY                   ADDRESS         REF BY
           =====                   =======         ======
           vListInitialiseItem     00016B06        prvInitialiseTCBVariables (tasks)
               CSTACK = 00000000 ( 00000004 )
    -------------------------------------------------------------------------
<CODE> 3 (was CODE)
  Relative segment, address: 00015716 - 00015743 (0x2e bytes), align: 1
  Segment part 4.
           ENTRY                   ADDRESS         REF BY
           =====                   =======         ======
           vListInsertEnd          00015716        ?Subroutine28 (tasks)
                                                   vTaskPlaceOnEventList (tasks)
                                                   xTaskRemoveFromEventList (tasks)
               CSTACK = 00000000 ( 00000004 )
    -------------------------------------------------------------------------
<CODE> 3 (was CODE)
  Relative segment, address: 00014CE0 - 00014D21 (0x42 bytes), align: 1
  Segment part 3.
           ENTRY                   ADDRESS         REF BY
           =====                   =======         ======
           vListInsert             00014CE0        Segment part 50 (tasks)
                                                   vTaskPlaceOnEventList (tasks)
               CSTACK = 00000000 ( 00000008 )
    -------------------------------------------------------------------------
<CODE> 3 (was CODE)
  Relative segment, address: 0001525A - 00015291 (0x38 bytes), align: 1
  Segment part 2.
           ENTRY                   ADDRESS         REF BY
           =====                   =======         ======
           vListRemove             0001525A        ?Subroutine13 (tasks)
                                                   ?Subroutine27 (tasks)
                                                   vTaskIncrementTick (tasks)
               CSTACK = 00000000 ( 00000004 )

    *************************************************************************

  FILE NAME : C:\Texas Instruments\EZ430-RF2560 SDK\Beta_1_0\EZ430-RF2560_Applications\Source\bluetooth\build\msp430\spp\accl\iar\release\Debug\Obj\main.r43
  PROGRAM MODULE, NAME : main

  SEGMENTS IN THE MODULE
  ======================
DATA16_AN
  Relative segment, address: 015C - 015D (0x2 bytes), align: 0
  Segment part 1. ROOT.       Intra module refs:   __low_level_init
                                                   sdk_init_bsp (sdk_pl)
           ENTRY                   ADDRESS         REF BY
           =====                   =======         ======
           _A_WDTCTL_L             015C 
           LOCAL                   ADDRESS         
           =====                   =======         
           WDTCTL                  015C 
           WDTCTL_H                015D 
           WDTCTL_L                015C 
    -------------------------------------------------------------------------
<CODE> 3 (was CODE)
  Relative segment, address: 0001589E - 000158C5 (0x28 bytes), align: 1
  Segment part 4.
           ENTRY                   ADDRESS         REF BY
           =====                   =======         ======
           main                    0001589E        Segment part 19 (?cstart)
               calls direct
               CSTACK = 00000000 ( 00000004 )
    -------------------------------------------------------------------------
<CODE> 3 (was CODE)
  Relative segment, address: 00016A4C - 00016A55 (0xa bytes), align: 1
  Segment part 3. ROOT.
           ENTRY                   ADDRESS         REF BY
           =====                   =======         ======
           __low_level_init        00016A4C        ?cstart_call_low_level_init (?cstart)
               CSTACK = 00000000 ( 00000004 )

    *************************************************************************

  FILE NAME : C:\Texas Instruments\EZ430-RF2560 SDK\Beta_1_0\EZ430-RF2560_Applications\Source\bluetooth\build\msp430\spp\accl\iar\release\Debug\Obj\msp430_uart.r43
  PROGRAM MODULE, NAME : msp430_uart

  SEGMENTS IN THE MODULE
  ======================
DATA20_Z
  Relative segment, address: 2A14 - 2A17 (0x4 bytes), align: 1
  Segment part 3.             Intra module refs:   BT_UART_ISR
           ENTRY                   ADDRESS         REF BY
           =====                   =======         ======
           inactivity_counter      2A14            PORT2_VECTOR_ISR (appl_menu_pl)
                                                   TIMER1_A0_ISR (user_task)
                                                   user_task_routine (user_task)
    -------------------------------------------------------------------------
DATA20_Z
  Relative segment, address: 2A18 - 2A1B (0x4 bytes), align: 1
  Segment part 4.             Intra module refs:   BT_UART_ISR
                                                   hci_uart_write_data
                                                   uart_setup
           LOCAL                   ADDRESS         
           =====                   =======         
           tx_isr_active           2A18 
    -------------------------------------------------------------------------
DATA20_Z
  Relative segment, address: 2A1C - 2A8D (0x72 bytes), align: 1
  Segment part 5.             Intra module refs:   BT_UART_ISR
                                                   MSP430_uart_init
                                                   hci_uart_bt_shutdown
                                                   hci_uart_write_data
                                                   uart_set_baudrate
           ENTRY                   ADDRESS         REF BY
           =====                   =======         ======
           bt_uart_config          2A1C            ?Subroutine1 (appl_bt_rf)
                                                   ?Subroutine2 (queue)
                                                   ?Subroutine20 (tasks)
                                                   ?Subroutine29 (tasks)
                                                   PORT1_VECTOR_ISR (appl_bt_rf)
                                                   PORT2_VECTOR_ISR (appl_menu_pl)
                                                   Segment part 13 (write_task)
                                                   Segment part 61 (tasks)
                                                   TIMER1_A0_ISR (user_task)
                                                   ehcill_send_wakeup_ind (appl_bt_rf)
                                                   ehcill_uart_handler (appl_bt_rf)
                                                   hci_command_complete_event (hci_events)
                                                   ht_read_task_start_routine (read_task)
                                                   prvUnlockQueue (queue)
                                                   sdk_configure_bt_uart (sdk_pl)
                                                   uart_error_handler (sdk_pl)
                                                   vApplicationIdleHook (appl_spp)
                                                   wrapper_sdk_change_controller_baudrate (sdk_pl)
                                                   xQueueGenericReceive (queue)
                                                   xQueueGenericSend (queue)
    -------------------------------------------------------------------------
DATA20_Z
  Relative segment, address: 3DA7 - 3FA6 (0x200 bytes), align: 0
  Segment part 6.             Intra module refs:   ?Subroutine1
                                                   BT_UART_ISR
                                                   hci_uart_write_data
           LOCAL                   ADDRESS         
           =====                   =======         
           uart_tx_buffer          3DA7 
    -------------------------------------------------------------------------
DATA20_Z
  Relative segment, address: 2A8E - 2A8F (0x2 bytes), align: 1
  Segment part 7.             Intra module refs:   BT_UART_ISR
                                                   hci_uart_write_data
           LOCAL                   ADDRESS         
           =====                   =======         
           uart_tx_rd              2A8E 
    -------------------------------------------------------------------------
DATA20_Z
  Relative segment, address: 2A90 - 2A91 (0x2 bytes), align: 1
  Segment part 8.             Intra module refs:   BT_UART_ISR
                                                   hci_uart_write_data
           LOCAL                   ADDRESS         
           =====                   =======         
           uart_tx_wr              2A90 
    -------------------------------------------------------------------------
DATA20_C
  Relative segment, address: 0001700C - 0001700F (0x4 bytes), align: 0
  Segment part 10.            Intra module refs:   sdk_change_controller_baudrate
           ENTRY                   ADDRESS         REF BY
           =====                   =======         ======
           UART_params_9600        0001700C 
    -------------------------------------------------------------------------
DATA20_C
  Relative segment, address: 00017010 - 00017013 (0x4 bytes), align: 0
  Segment part 11.            Intra module refs:   sdk_change_controller_baudrate
           ENTRY                   ADDRESS         REF BY
           =====                   =======         ======
           UART_params_19200       00017010 
    -------------------------------------------------------------------------
DATA20_C
  Relative segment, address: 00017014 - 00017017 (0x4 bytes), align: 0
  Segment part 12.            Intra module refs:   sdk_change_controller_baudrate
           ENTRY                   ADDRESS         REF BY
           =====                   =======         ======
           UART_params_38400       00017014 
    -------------------------------------------------------------------------
DATA20_C
  Relative segment, address: 00017018 - 0001701B (0x4 bytes), align: 0
  Segment part 13.            Intra module refs:   sdk_change_controller_baudrate
           ENTRY                   ADDRESS         REF BY
           =====                   =======         ======
           UART_params_57600       00017018 
    -------------------------------------------------------------------------
DATA20_C
  Relative segment, address: 0001701C - 0001701F (0x4 bytes), align: 0
  Segment part 14.            Intra module refs:   sdk_change_controller_baudrate
           ENTRY                   ADDRESS         REF BY
           =====                   =======         ======
           UART_params_115200      0001701C 
    -------------------------------------------------------------------------
DATA20_C
  Relative segment, address: 00017020 - 00017023 (0x4 bytes), align: 0
  Segment part 15.            Intra module refs:   sdk_change_controller_baudrate
           ENTRY                   ADDRESS         REF BY
           =====                   =======         ======
           UART_params_230400      00017020 
    -------------------------------------------------------------------------
DATA20_C
  Relative segment, address: 00017024 - 00017027 (0x4 bytes), align: 0
  Segment part 16.            Intra module refs:   sdk_change_controller_baudrate
           ENTRY                   ADDRESS         REF BY
           =====                   =======         ======
           UART_params_460800      00017024 
    -------------------------------------------------------------------------
DATA20_C
  Relative segment, address: 00017028 - 0001702B (0x4 bytes), align: 0
  Segment part 17.            Intra module refs:   sdk_change_controller_baudrate
           ENTRY                   ADDRESS         REF BY
           =====                   =======         ======
           UART_params_921600      00017028 
    -------------------------------------------------------------------------
<CODE> 3 (was CODE)
  Relative segment, address: 0001152A - 000115DD (0xb4 bytes), align: 1
  Segment part 22.            Intra module refs:   uart_setup
           ENTRY                   ADDRESS         REF BY
           =====                   =======         ======
           MSP430_uart_init        0001152A        PORT1_VECTOR_ISR (appl_bt_rf)
                                                   restore_peripheral_status (sdk_pl)
               calls direct
               CSTACK = 00000000 ( 00000008 )
    -------------------------------------------------------------------------
ISR_CODE
  Relative segment, address: 5D5A - 5E81 (0x128 bytes), align: 1
  Segment part 27.            Intra module refs:   BT_UART_ISR::??INTVEC 104
           ENTRY                   ADDRESS         REF BY
           =====                   =======         ======
           BT_UART_ISR             5D5A 
               interrupt function
               calls direct
               CSTACK = 00000000 ( 00000020 )
    -------------------------------------------------------------------------
<CODE> 3 (was CODE)
  Relative segment, address: 0001495E - 000149A5 (0x48 bytes), align: 1
  Segment part 26.
           ENTRY                   ADDRESS         REF BY
           =====                   =======         ======
           hci_uart_bt_shutdown    0001495E        TIMER1_A0_ISR (user_task)
               CSTACK = 00000000 ( 00000004 )
    -------------------------------------------------------------------------
<CODE> 3 (was CODE)
  Relative segment, address: 00011BF2 - 00011C99 (0xa8 bytes), align: 1
  Segment part 24.
           ENTRY                   ADDRESS         REF BY
           =====                   =======         ======
           hci_uart_write_data     00011BF2        ehcill_send_wakeup_ind (appl_bt_rf)
                                                   hci_uart_send_data (hci_uart)
               calls direct
               CSTACK = 00000000 ( 0000001C )
    -------------------------------------------------------------------------
<CODE> 3 (was CODE)
  Relative segment, address: 0001680A - 00016815 (0xc bytes), align: 1
  Segment part 25.            Intra module refs:   hci_uart_write_data
           LOCAL                   ADDRESS         
           =====                   =======         
           ?Subroutine1            0001680A 
    -------------------------------------------------------------------------
<CODE> 3 (was CODE)
  Relative segment, address: 0001547C - 000154AD (0x32 bytes), align: 1
  Segment part 23.
           ENTRY                   ADDRESS         REF BY
           =====                   =======         ======
           uart_setup              0001547C        hci_uart_bt_init (hci_uart)
               calls direct
               CSTACK = 00000000 ( 00000004 )
    -------------------------------------------------------------------------
<CODE> 3 (was CODE)
  Relative segment, address: 00011690 - 0001173F (0xb0 bytes), align: 1
  Segment part 18.            Intra module refs:   MSP430_uart_init
                                                   sdk_change_host_baudrate
           ENTRY                   ADDRESS         REF BY
           =====                   =======         ======
           uart_set_baudrate       00011690 
               CSTACK = 00000000 ( 00000004 )
    -------------------------------------------------------------------------
<CODE> 3 (was CODE)
  Relative segment, address: 0001674E - 0001675B (0xe bytes), align: 1
  Segment part 19.            Intra module refs:   uart_set_baudrate
           LOCAL                   ADDRESS         
           =====                   =======         
           ?Subroutine0            0001674E 
    -------------------------------------------------------------------------
<CODE> 3 (was CODE)
  Relative segment, address: 0001225E - 000122FF (0xa2 bytes), align: 1
  Segment part 21.
           ENTRY                   ADDRESS         REF BY
           =====                   =======         ======
           sdk_change_controller_baudrate
                                   0001225E        wrapper_sdk_change_controller_baudrate (sdk_pl)
               calls direct
               CSTACK = 00000000 ( 00000004 )
    -------------------------------------------------------------------------
<CODE> 3 (was CODE)
  Relative segment, address: 00016AD6 - 00016ADD (0x8 bytes), align: 1
  Segment part 20.
           ENTRY                   ADDRESS         REF BY
           =====                   =======         ======
           sdk_change_host_baudrate
                                   00016AD6        hci_command_complete_event (hci_events)
               calls direct
               CSTACK = 00000000 ( 00000004 )
    -------------------------------------------------------------------------
INTVEC
  Common segment, address: FF80 - FFE9 (0x6a bytes), align: 1
  Segment part 1. ROOT.
           ENTRY                   ADDRESS         REF BY
           =====                   =======         ======
           BT_UART_ISR::??INTVEC 104
                                   FFE8 

    *************************************************************************

  FILE NAME : C:\Texas Instruments\EZ430-RF2560 SDK\Beta_1_0\EZ430-RF2560_Applications\Source\bluetooth\build\msp430\spp\accl\iar\release\Debug\Obj\port.r43
  PROGRAM MODULE, NAME : port

  SEGMENTS IN THE MODULE
  ======================
DATA20_I
  Relative segment, address: 1C02 - 1C03 (0x2 bytes), align: 1
  Segment part 2.
           ENTRY                   ADDRESS         REF BY
           =====                   =======         ======
           usCriticalNesting       1C02            ?Subroutine17 (tasks)
                                                   ?Subroutine2 (queue)
                                                   ?Subroutine20 (tasks)
                                                   ?Subroutine29 (tasks)
                                                   Absolute parts (portext)
                                                   prvCheckTasksWaitingTermination (tasks)
                                                   prvUnlockQueue (queue)
                                                   xQueueGenericReceive (queue)
                                                   xQueueGenericSend (queue)
    -------------------------------------------------------------------------
<CODE> 2 (was CODE)
  Relative segment, address: FB80 - FC6D (0xee bytes), align: 1
  Segment part 6.
           ENTRY                   ADDRESS         REF BY
           =====                   =======         ======
           pxPortInitialiseStack   FB80            xTaskGenericCreate (tasks)
               CSTACK = 00000000 ( 0000000C )
    -------------------------------------------------------------------------
<CODE> 3 (was CODE)
  Relative segment, address: 00016BFA - 00016BFB (0x2 bytes), align: 1
  Segment part 4.
           ENTRY                   ADDRESS         REF BY
           =====                   =======         ======
           prvSetupTimerInterrupt
                                   00016BFA        Absolute parts (portext)
               CSTACK = 00000000 ( 00000004 )
    -------------------------------------------------------------------------
DATA20_ID
  Relative segment, address: 00020534 - 00020535 (0x2 bytes), align: 1
  Segment part 3.             Intra module refs:   usCriticalNesting

    *************************************************************************

  FILE NAME : C:\Texas Instruments\EZ430-RF2560 SDK\Beta_1_0\EZ430-RF2560_Applications\Source\bluetooth\build\msp430\spp\accl\iar\release\Debug\Obj\portext.r43
  PROGRAM MODULE, NAME : portext

Absolute parts
     F500 - F6BD
           ENTRY                   ADDRESS         REF BY
           =====                   =======         ======
           vPortYield              F594            ?Subroutine13 (queue)
                                                   ?Subroutine14 (queue)
                                                   ?Subroutine22 (tasks)
                                                   ?Subroutine26 (tasks)
                                                   ?Subroutine31 (tasks)
                                                   BT_UART_ISR (msp430_uart)
                                                   PORT2_VECTOR_ISR (appl_menu_pl)
                                                   TIMER1_A0_ISR (user_task)
           xPortStartScheduler     F674            vTaskStartScheduler (tasks)
           LOCAL                   ADDRESS         
           =====                   =======         
           vTickISR                F500 
    *************************************************************************

  FILE NAME : C:\Texas Instruments\EZ430-RF2560 SDK\Beta_1_0\EZ430-RF2560_Applications\Source\bluetooth\build\msp430\spp\accl\iar\release\Debug\Obj\queue.r43
  PROGRAM MODULE, NAME : queue

  SEGMENTS IN THE MODULE
  ======================
<CODE> 3 (was CODE)
  Relative segment, address: 000121BC - 0001225D (0xa2 bytes), align: 1
  Segment part 33.            Intra module refs:   xQueueCreateCountingSemaphore
           ENTRY                   ADDRESS         REF BY
           =====                   =======         ======
           xQueueCreate            000121BC 
               calls direct
               CSTACK = 00000000 ( 00000016 )
    -------------------------------------------------------------------------
<CODE> 3 (was CODE)
  Relative segment, address: 00016A7E - 00016A87 (0xa bytes), align: 1
  Segment part 36.            Intra module refs:   xQueueCreate
                                                   xQueueCreateMutex
           LOCAL                   ADDRESS         
           =====                   =======         
           ?Subroutine15           00016A7E 
    -------------------------------------------------------------------------
<CODE> 3 (was CODE)
  Relative segment, address: 00014074 - 000140CF (0x5c bytes), align: 1
  Segment part 35.
           ENTRY                   ADDRESS         REF BY
           =====                   =======         ======
           xQueueCreateMutex       00014074        BT_thread_mutex_init (BT_os)
               calls direct
               CSTACK = 00000000 ( 00000008 )
    -------------------------------------------------------------------------
<CODE> 3 (was CODE)
  Relative segment, address: 00016062 - 00016077 (0x16 bytes), align: 1
  Segment part 34.
           ENTRY                   ADDRESS         REF BY
           =====                   =======         ======
           xQueueCreateCountingSemaphore
                                   00016062        Segment part 24 (BT_os)
               calls direct
               CSTACK = 00000000 ( 00000008 )
    -------------------------------------------------------------------------
<CODE> 1 (was CODE)
  Relative segment, address: AA3E - AB45 (0x108 bytes), align: 1
  Segment part 17.
           ENTRY                   ADDRESS         REF BY
           =====                   =======         ======
           xQueueGenericReceive    AA3E            BT_thread_cond_wait (BT_os)
                                                   BT_thread_mutex_lock (BT_os)
                                                   ht_read_task_start_routine (read_task)
                                                   user_task_routine (user_task)
               calls direct
               CSTACK = 00000000 ( 0000002E )
    -------------------------------------------------------------------------
<CODE> 1 (was CODE)
  Relative segment, address: AB46 - AB4D (0x8 bytes), align: 1
  Segment part 18.            Intra module refs:   xQueueGenericReceive
                                                   xQueueGenericSend
           LOCAL                   ADDRESS         
           =====                   =======         
           ?Subroutine1            AB46 
    -------------------------------------------------------------------------
<CODE> 1 (was CODE)
  Relative segment, address: AB4E - AB57 (0xa bytes), align: 1
  Segment part 19.            Intra module refs:   xQueueGenericReceive
           LOCAL                   ADDRESS         
           =====                   =======         
           ?Subroutine13           AB4E 
    -------------------------------------------------------------------------
<CODE> 1 (was CODE)
  Relative segment, address: AB58 - AB5B (0x4 bytes), align: 1
  Segment part 20.            Intra module refs:   xQueueGenericReceive
                                                   xQueueGenericSendFromISR
           LOCAL                   ADDRESS         
           =====                   =======         
           ?Subroutine9            AB58 
    -------------------------------------------------------------------------
<CODE> 1 (was CODE)
  Relative segment, address: AB5C - AB65 (0xa bytes), align: 1
  Segment part 21.            Intra module refs:   ?Subroutine9
    -------------------------------------------------------------------------
<CODE> 1 (was CODE)
  Relative segment, address: AB66 - AB75 (0x10 bytes), align: 1
  Segment part 22.            Intra module refs:   xQueueGenericReceive
           LOCAL                   ADDRESS         
           =====                   =======         
           ?Subroutine5            AB66 
    -------------------------------------------------------------------------
<CODE> 1 (was CODE)
  Relative segment, address: AB76 - AB89 (0x14 bytes), align: 1
  Segment part 23.            Intra module refs:   xQueueGenericReceive
           LOCAL                   ADDRESS         
           =====                   =======         
           ?Subroutine3            AB76 
    -------------------------------------------------------------------------
<CODE> 1 (was CODE)
  Relative segment, address: AB8A - ABC3 (0x3a bytes), align: 1
  Segment part 24.
           ENTRY                   ADDRESS         REF BY
           =====                   =======         ======
           xQueueGenericSendFromISR
                                   AB8A            BT_UART_ISR (msp430_uart)
                                                   PORT2_VECTOR_ISR (appl_menu_pl)
                                                   TIMER1_A0_ISR (user_task)
               calls direct
               CSTACK = 00000000 ( 0000000C )
    -------------------------------------------------------------------------
<CODE> 1 (was CODE)
  Relative segment, address: ABC4 - AC8F (0xcc bytes), align: 1
  Segment part 25.            Intra module refs:   xQueueCreateMutex
           ENTRY                   ADDRESS         REF BY
           =====                   =======         ======
           xQueueGenericSend       ABC4            BT_thread_cond_wait (BT_os)
                                                   Segment part 13 (BT_os)
               calls direct
               CSTACK = 00000000 ( 0000002E )
    -------------------------------------------------------------------------
<CODE> 3 (was CODE)
  Relative segment, address: 00016AA6 - 00016AAF (0xa bytes), align: 1
  Segment part 26.            Intra module refs:   xQueueGenericSend
           LOCAL                   ADDRESS         
           =====                   =======         
           ?Subroutine14           00016AA6 
    -------------------------------------------------------------------------
<CODE> 3 (was CODE)
  Relative segment, address: 00016A74 - 00016A75 (0x2 bytes), align: 1
  Segment part 27.            Intra module refs:   ?Subroutine10
                                                   xQueueGenericReceive
                                                   xQueueGenericSend
           LOCAL                   ADDRESS         
           =====                   =======         
           ?Subroutine16           00016A74 
    -------------------------------------------------------------------------
<CODE> 3 (was CODE)
  Relative segment, address: 00016A76 - 00016A7D (0x8 bytes), align: 1
  Segment part 28.            Intra module refs:   ?Subroutine16
                                                   xQueueGenericReceive
                                                   xQueueGenericSend
           LOCAL                   ADDRESS         
           =====                   =======         
           ?Subroutine17           00016A76 
    -------------------------------------------------------------------------
<CODE> 3 (was CODE)
  Relative segment, address: 0001683A - 00016845 (0xc bytes), align: 1
  Segment part 29.            Intra module refs:   xQueueGenericReceive
                                                   xQueueGenericSend
           LOCAL                   ADDRESS         
           =====                   =======         
           ?Subroutine10           0001683A 
    -------------------------------------------------------------------------
<CODE> 3 (was CODE)
  Relative segment, address: 00016020 - 00016035 (0x16 bytes), align: 1
  Segment part 30.            Intra module refs:   xQueueGenericReceive
                                                   xQueueGenericSend
           LOCAL                   ADDRESS         
           =====                   =======         
           ?Subroutine8            00016020 
    -------------------------------------------------------------------------
<CODE> 3 (was CODE)
  Relative segment, address: 0001655E - 0001656D (0x10 bytes), align: 1
  Segment part 31.            Intra module refs:   xQueueGenericSend
           LOCAL                   ADDRESS         
           =====                   =======         
           ?Subroutine7            0001655E 
    -------------------------------------------------------------------------
<CODE> 3 (was CODE)
  Relative segment, address: 0001619A - 000161AD (0x14 bytes), align: 1
  Segment part 32.            Intra module refs:   xQueueGenericSend
           LOCAL                   ADDRESS         
           =====                   =======         
           ?Subroutine4            0001619A 
    -------------------------------------------------------------------------
<CODE> 1 (was CODE)
  Relative segment, address: CD4A - CD53 (0xa bytes), align: 1
  Segment part 3.             Intra module refs:   xQueueGenericSend
           LOCAL                   ADDRESS         
           =====                   =======         
           prvIsQueueFull          CD4A 
               CSTACK = 00000000 ( 00000004 )
    -------------------------------------------------------------------------
<CODE> 1 (was CODE)
  Relative segment, address: CD54 - CD6F (0x1c bytes), align: 1
  Segment part 4.             Intra module refs:   prvIsQueueEmpty
                                                   prvIsQueueFull
           LOCAL                   ADDRESS         
           =====                   =======         
           ?Subroutine0            CD54 
    -------------------------------------------------------------------------
<CODE> 1 (was CODE)
  Relative segment, address: CD70 - CD79 (0xa bytes), align: 1
  Segment part 6.             Intra module refs:   xQueueGenericReceive
           LOCAL                   ADDRESS         
           =====                   =======         
           prvIsQueueEmpty         CD70 
               CSTACK = 00000000 ( 00000004 )
    -------------------------------------------------------------------------
<CODE> 1 (was CODE)
  Relative segment, address: CD7A - CD93 (0x1a bytes), align: 1
  Segment part 7.             Intra module refs:   prvIsQueueEmpty
                                                   prvIsQueueFull
           LOCAL                   ADDRESS         
           =====                   =======         
           ?Subroutine2            CD7A 
    -------------------------------------------------------------------------
<CODE> 1 (was CODE)
  Relative segment, address: CD94 - CE0F (0x7c bytes), align: 1
  Segment part 8.             Intra module refs:   ?Subroutine17
           LOCAL                   ADDRESS         
           =====                   =======         
           prvUnlockQueue          CD94 
               calls direct
               CSTACK = 00000000 ( 00000014 )
    -------------------------------------------------------------------------
<CODE> 1 (was CODE)
  Relative segment, address: CE10 - CE1D (0xe bytes), align: 1
  Segment part 9.             Intra module refs:   prvUnlockQueue
           LOCAL                   ADDRESS         
           =====                   =======         
           ?Subroutine12           CE10 
    -------------------------------------------------------------------------
<CODE> 1 (was CODE)
  Relative segment, address: CE1E - CE31 (0x14 bytes), align: 1
  Segment part 10.            Intra module refs:   prvUnlockQueue
           LOCAL                   ADDRESS         
           =====                   =======         
           ?Subroutine6            CE1E 
    -------------------------------------------------------------------------
<CODE> 1 (was CODE)
  Relative segment, address: CE32 - CE63 (0x32 bytes), align: 1
  Segment part 11.            Intra module refs:   xQueueGenericReceive
           LOCAL                   ADDRESS         
           =====                   =======         
           prvCopyDataFromQueue    CE32 
               calls direct
               CSTACK = 00000000 ( 00000008 )
    -------------------------------------------------------------------------
<CODE> 1 (was CODE)
  Relative segment, address: CE64 - CEE9 (0x86 bytes), align: 1
  Segment part 12.            Intra module refs:   xQueueGenericSend
                                                   xQueueGenericSendFromISR
           LOCAL                   ADDRESS         
           =====                   =======         
           prvCopyDataToQueue      CE64 
               calls direct
               CSTACK = 00000000 ( 00000008 )

    *************************************************************************

  FILE NAME : C:\Texas Instruments\EZ430-RF2560 SDK\Beta_1_0\EZ430-RF2560_Applications\Source\bluetooth\build\msp430\spp\accl\iar\release\Debug\Obj\sdk_pl.r43
  PROGRAM MODULE, NAME : sdk_pl

  SEGMENTS IN THE MODULE
  ======================
DATA16_AN
  Relative segment, address: 0380 - 0381 (0x2 bytes), align: 0
  Segment part 12. ROOT.      Intra module refs:   TIMER1_A0_ISR (user_task)
                                                   configTimer1_A3
                                                   restore_peripheral_status
           ENTRY                   ADDRESS         REF BY
           =====                   =======         ======
           _A_TA1CTL_L             0380 
           LOCAL                   ADDRESS         
           =====                   =======         
           TA1CTL                  0380 
           TA1CTL_H                0381 
           TA1CTL_L                0380 
    -------------------------------------------------------------------------
DATA16_AN
  Relative segment, address: 0382 - 0383 (0x2 bytes), align: 0
  Segment part 13. ROOT.      Intra module refs:   TIMER1_A0_ISR (user_task)
                                                   configTimer1_A3
           ENTRY                   ADDRESS         REF BY
           =====                   =======         ======
           _A_TA1CCTL0_L           0382 
           LOCAL                   ADDRESS         
           =====                   =======         
           TA1CCTL0                0382 
           TA1CCTL0_H              0383 
           TA1CCTL0_L              0382 
    -------------------------------------------------------------------------
DATA16_AN
  Relative segment, address: 0392 - 0393 (0x2 bytes), align: 0
  Segment part 14. ROOT.      Intra module refs:   TIMER1_A0_ISR (user_task)
                                                   configTimer1_A3
           ENTRY                   ADDRESS         REF BY
           =====                   =======         ======
           _A_TA1CCR0_L            0392 
           LOCAL                   ADDRESS         
           =====                   =======         
           TA1CCR0                 0392 
           TA1CCR0_H               0393 
           TA1CCR0_L               0392 
    -------------------------------------------------------------------------
DATA16_AN
  Relative segment, address: 0640 - 0641 (0x2 bytes), align: 0
  Segment part 15. ROOT.      Intra module refs:   sdk_configure_bt_uart
           ENTRY                   ADDRESS         REF BY
           =====                   =======         ======
           _A_UCA2CTLW0_L          0640 
           LOCAL                   ADDRESS         
           =====                   =======         
           UCA2CTLW0               0640 
           UCA2CTLW0_H             0641 
           UCA2CTLW0_L             0640 
    -------------------------------------------------------------------------
DATA16_AN
  Relative segment, address: 0646 - 0647 (0x2 bytes), align: 0
  Segment part 16. ROOT.      Intra module refs:   sdk_configure_bt_uart
           ENTRY                   ADDRESS         REF BY
           =====                   =======         ======
           _A_UCA2BRW_L            0646 
           LOCAL                   ADDRESS         
           =====                   =======         
           UCA2BRW                 0646 
           UCA2BRW_H               0647 
           UCA2BRW_L               0646 
    -------------------------------------------------------------------------
DATA16_AN
  Relative segment, address: 0648 - 0648 (0x1 bytes), align: 0
  Segment part 17. ROOT.      Intra module refs:   sdk_configure_bt_uart
           ENTRY                   ADDRESS         REF BY
           =====                   =======         ======
           UCA2MCTL                0648 
    -------------------------------------------------------------------------
DATA16_AN
  Relative segment, address: 064A - 064A (0x1 bytes), align: 0
  Segment part 18. ROOT.      Intra module refs:   sdk_configure_bt_uart
           ENTRY                   ADDRESS         REF BY
           =====                   =======         ======
           UCA2STAT                064A 
    -------------------------------------------------------------------------
DATA16_AN
  Relative segment, address: 064C - 064C (0x1 bytes), align: 0
  Segment part 19. ROOT.      Intra module refs:   sdk_configure_bt_uart
           ENTRY                   ADDRESS         REF BY
           =====                   =======         ======
           UCA2RXBUF               064C 
    -------------------------------------------------------------------------
DATA16_AN
  Relative segment, address: 064E - 064E (0x1 bytes), align: 0
  Segment part 20. ROOT.      Intra module refs:   sdk_configure_bt_uart
           ENTRY                   ADDRESS         REF BY
           =====                   =======         ======
           UCA2TXBUF               064E 
    -------------------------------------------------------------------------
DATA16_AN
  Relative segment, address: 065C - 065D (0x2 bytes), align: 0
  Segment part 21. ROOT.      Intra module refs:   sdk_configure_bt_uart
           ENTRY                   ADDRESS         REF BY
           =====                   =======         ======
           _A_UCA2ICTL_L           065C 
           LOCAL                   ADDRESS         
           =====                   =======         
           UCA2ICTL                065C 
           UCA2ICTL_H              065D 
           UCA2ICTL_L              065C 
    -------------------------------------------------------------------------
DATA16_AN
  Relative segment, address: 065E - 065F (0x2 bytes), align: 0
  Segment part 22. ROOT.      Intra module refs:   sdk_configure_bt_uart
           ENTRY                   ADDRESS         REF BY
           =====                   =======         ======
           UCA2IV                  065E 
    -------------------------------------------------------------------------
DATA20_Z
  Relative segment, address: 3FA7 - 3FA7 (0x1 bytes), align: 0
  Segment part 27.            Intra module refs:   sdk_init_bsp
           ENTRY                   ADDRESS         REF BY
           =====                   =======         ======
           sdk_usb_detected        3FA7            appl_spp_notify_cb (appl_spp)
    -------------------------------------------------------------------------
DATA20_Z
  Relative segment, address: 3FA8 - 3FA8 (0x1 bytes), align: 0
  Segment part 28.            Intra module refs:   restore_peripheral_status
           ENTRY                   ADDRESS         REF BY
           =====                   =======         ======
           LED_STATUS              3FA8            TIMER1_A0_ISR (user_task)
    -------------------------------------------------------------------------
DATA20_Z
  Relative segment, address: 3FA9 - 3FA9 (0x1 bytes), align: 0
  Segment part 29.            Intra module refs:   sdk_set_frequency
           ENTRY                   ADDRESS         REF BY
           =====                   =======         ======
           cpu_frequency           3FA9            uart_set_baudrate (msp430_uart)
    -------------------------------------------------------------------------
<CODE> 3 (was CODE)
  Relative segment, address: 00014F66 - 00014FA1 (0x3c bytes), align: 1
  Segment part 48.
           ENTRY                   ADDRESS         REF BY
           =====                   =======         ======
           sdk_init_bsp            00014F66        main (main)
               calls direct
               CSTACK = 00000000 ( 00000004 )
    -------------------------------------------------------------------------
<CODE> 3 (was CODE)
  Relative segment, address: 00016BD4 - 00016BD7 (0x4 bytes), align: 1
  Segment part 47.
           ENTRY                   ADDRESS         REF BY
           =====                   =======         ======
           sdk_init_ui             00016BD4        main (main)
               calls direct
               CSTACK = 00000000 ( 00000004 )
    -------------------------------------------------------------------------
<CODE> 3 (was CODE)
  Relative segment, address: 000169FC - 00016A05 (0xa bytes), align: 1
  Segment part 46.            Intra module refs:   sdk_accelerometer_read_int_xyz
           LOCAL                   ADDRESS         
           =====                   =======         
           ?Subroutine0            000169FC 
    -------------------------------------------------------------------------
<CODE> 3 (was CODE)
  Relative segment, address: 00012D74 - 00012DF5 (0x82 bytes), align: 1
  Segment part 43.
           ENTRY                   ADDRESS         REF BY
           =====                   =======         ======
           sdk_accelerometer_read_int_xyz
                                   00012D74        appl_acceleromenter_read_spp_send (appl_sdk)
               calls direct
               CSTACK = 00000000 ( 00000014 )
    -------------------------------------------------------------------------
<CODE> 2 (was CODE)
  Relative segment, address: F99E - FA8F (0xf2 bytes), align: 1
  Segment part 42.            Intra module refs:   sdk_init_bsp
           ENTRY                   ADDRESS         REF BY
           =====                   =======         ======
           sdk_configure_bt_uart   F99E 
               CSTACK = 00000000 ( 00000004 )
    -------------------------------------------------------------------------
<CODE> 3 (was CODE)
  Relative segment, address: 0001650E - 0001651D (0x10 bytes), align: 1
  Segment part 41.
           ENTRY                   ADDRESS         REF BY
           =====                   =======         ======
           wrapper_sdk_change_controller_baudrate
                                   0001650E        hci_command_complete_event (hci_events)
               calls direct
               CSTACK = 00000000 ( 00000004 )
    -------------------------------------------------------------------------
<CODE> 3 (was CODE)
  Relative segment, address: 0001668A - 00016697 (0xe bytes), align: 1
  Segment part 40.            Intra module refs:   sdk_init_bsp
           ENTRY                   ADDRESS         REF BY
           =====                   =======         ======
           sdk_bt_rf_port_config   0001668A 
               CSTACK = 00000000 ( 00000004 )
    -------------------------------------------------------------------------
<CODE> 3 (was CODE)
  Relative segment, address: 000161D6 - 000161E9 (0x14 bytes), align: 1
  Segment part 39.
           ENTRY                   ADDRESS         REF BY
           =====                   =======         ======
           configTimer1_A3         000161D6        sdk_config_timer (user_task)
               CSTACK = 00000000 ( 00000004 )
    -------------------------------------------------------------------------
<CODE> 3 (was CODE)
  Relative segment, address: 00016C02 - 00016C03 (0x2 bytes), align: 1
  Segment part 37.
           ENTRY                   ADDRESS         REF BY
           =====                   =======         ======
           mem_allocation_failure_display
                                   00016C02        BT_alloc_mem (BT_os)
               CSTACK = 00000000 ( 00000004 )
    -------------------------------------------------------------------------
<CODE> 3 (was CODE)
  Relative segment, address: 00015A72 - 00015A97 (0x26 bytes), align: 1
  Segment part 33.            Intra module refs:   restore_peripheral_status
                                                   sdk_init_bsp
           ENTRY                   ADDRESS         REF BY
           =====                   =======         ======
           sdk_sensor_init         00015A72 
               calls direct
               CSTACK = 00000000 ( 00000006 )
    -------------------------------------------------------------------------
<CODE> 3 (was CODE)
  Relative segment, address: 000166FA - 00016707 (0xe bytes), align: 1
  Segment part 36.            Intra module refs:   sdk_init_bsp
           ENTRY                   ADDRESS         REF BY
           =====                   =======         ======
           create_user_task        000166FA 
               calls direct
               CSTACK = 00000000 ( 00000004 )
    -------------------------------------------------------------------------
<CODE> 3 (was CODE)
  Relative segment, address: 00015BEC - 00015C0B (0x20 bytes), align: 1
  Segment part 35.
           ENTRY                   ADDRESS         REF BY
           =====                   =======         ======
           uart_error_handler      00015BEC        BT_UART_ISR (msp430_uart)
               calls direct
               CSTACK = 00000000 ( 00000006 )
    -------------------------------------------------------------------------
<CODE> 3 (was CODE)
  Relative segment, address: 00015D76 - 00015D93 (0x1e bytes), align: 1
  Segment part 34.
           ENTRY                   ADDRESS         REF BY
           =====                   =======         ======
           restore_peripheral_status
                                   00015D76        BT_UART_ISR (msp430_uart)
                                                   PORT2_VECTOR_ISR (appl_menu_pl)
               calls direct
               CSTACK = 00000000 ( 00000004 )
    -------------------------------------------------------------------------
<CODE> 3 (was CODE)
  Relative segment, address: 00016BB6 - 00016BBB (0x6 bytes), align: 1
  Segment part 32.
           ENTRY                   ADDRESS         REF BY
           =====                   =======         ======
           appl_bt_on_sdk_indication
                                   00016BB6        hci_command_complete_event (hci_events)
               CSTACK = 00000000 ( 00000004 )
    -------------------------------------------------------------------------
<CODE> 3 (was CODE)
  Relative segment, address: 000134B0 - 00013525 (0x76 bytes), align: 1
  Segment part 31.            Intra module refs:   sdk_init_bsp
           ENTRY                   ADDRESS         REF BY
           =====                   =======         ======
           sdk_set_frequency       000134B0 
               calls direct
               CSTACK = 00000000 ( 00000008 )
    -------------------------------------------------------------------------
<CODE> 3 (was CODE)
  Relative segment, address: 0001598E - 000159B3 (0x26 bytes), align: 1
  Segment part 30.
           ENTRY                   ADDRESS         REF BY
           =====                   =======         ======
           sdk_error_handler       0001598E        ht_read_task_start_routine (read_task)
               CSTACK = 00000000 ( 00000004 )

    *************************************************************************

  FILE NAME : C:\Texas Instruments\EZ430-RF2560 SDK\Beta_1_0\EZ430-RF2560_Applications\Source\bluetooth\build\msp430\spp\accl\iar\release\Debug\Obj\tasks.r43
  PROGRAM MODULE, NAME : tasks

  SEGMENTS IN THE MODULE
  ======================
DATA20_Z
  Relative segment, address: 2A92 - 2A95 (0x4 bytes), align: 1
  Segment part 3.             Intra module refs:   ?Subroutine24
                                                   vTaskPlaceOnEventList
                                                   vTaskPriorityInherit
                                                   vTaskSwitchContext
                                                   xTaskGenericCreate
                                                   xTaskGetCurrentTaskHandle
                                                   xTaskResumeAll
           ENTRY                   ADDRESS         REF BY
           =====                   =======         ======
           pxCurrentTCB            2A92            Absolute parts (portext)
    -------------------------------------------------------------------------
DATA20_Z
  Relative segment, address: 2A96 - 2AD5 (0x40 bytes), align: 1
  Segment part 4.             Intra module refs:   ?Subroutine14
                                                   ?Subroutine28
                                                   prvIdleTask
                                                   prvInitialiseTaskLists
                                                   vTaskPriorityInherit
                                                   vTaskSwitchContext
                                                   xTaskRemoveFromEventList
           LOCAL                   ADDRESS         
           =====                   =======         
           pxReadyTasksLists       2A96 
    -------------------------------------------------------------------------
DATA20_Z
  Relative segment, address: 2AD6 - 2AE5 (0x10 bytes), align: 1
  Segment part 5.             Intra module refs:   prvInitialiseTaskLists
           LOCAL                   ADDRESS         
           =====                   =======         
           xDelayedTaskList1       2AD6 
    -------------------------------------------------------------------------
DATA20_Z
  Relative segment, address: 2AE6 - 2AF5 (0x10 bytes), align: 1
  Segment part 6.             Intra module refs:   prvInitialiseTaskLists
           LOCAL                   ADDRESS         
           =====                   =======         
           xDelayedTaskList2       2AE6 
    -------------------------------------------------------------------------
DATA20_Z
  Relative segment, address: 2AF6 - 2AF9 (0x4 bytes), align: 1
  Segment part 7.             Intra module refs:   prvInitialiseTaskLists
                                                   vTaskIncrementTick
                                                   vTaskPlaceOnEventList
           LOCAL                   ADDRESS         
           =====                   =======         
           pxDelayedTaskList       2AF6 
    -------------------------------------------------------------------------
DATA20_Z
  Relative segment, address: 2AFA - 2AFD (0x4 bytes), align: 1
  Segment part 8.             Intra module refs:   prvInitialiseTaskLists
                                                   vTaskIncrementTick
                                                   vTaskPlaceOnEventList
           LOCAL                   ADDRESS         
           =====                   =======         
           pxOverflowDelayedTaskList
                                   2AFA 
    -------------------------------------------------------------------------
DATA20_Z
  Relative segment, address: 2AFE - 2B0D (0x10 bytes), align: 1
  Segment part 9.             Intra module refs:   prvInitialiseTaskLists
                                                   xTaskRemoveFromEventList
                                                   xTaskResumeAll
           LOCAL                   ADDRESS         
           =====                   =======         
           xPendingReadyList       2AFE 
    -------------------------------------------------------------------------
DATA20_Z
  Relative segment, address: 2B0E - 2B1D (0x10 bytes), align: 1
  Segment part 10.            Intra module refs:   prvCheckTasksWaitingTermination
                                                   prvInitialiseTaskLists
           LOCAL                   ADDRESS         
           =====                   =======         
           xTasksWaitingTermination
                                   2B0E 
    -------------------------------------------------------------------------
DATA20_Z
  Relative segment, address: 2B1E - 2B1F (0x2 bytes), align: 1
  Segment part 11.            Intra module refs:   prvCheckTasksWaitingTermination
           LOCAL                   ADDRESS         
           =====                   =======         
           uxTasksDeleted          2B1E 
    -------------------------------------------------------------------------
DATA20_Z
  Relative segment, address: 2B20 - 2B2F (0x10 bytes), align: 1
  Segment part 12.            Intra module refs:   prvInitialiseTaskLists
                                                   vTaskPlaceOnEventList
           LOCAL                   ADDRESS         
           =====                   =======         
           xSuspendedTaskList      2B20 
    -------------------------------------------------------------------------
DATA20_Z
  Relative segment, address: 2B30 - 2B31 (0x2 bytes), align: 1
  Segment part 13.            Intra module refs:   prvCheckTasksWaitingTermination
                                                   xTaskGenericCreate
                                                   xTaskResumeAll
           LOCAL                   ADDRESS         
           =====                   =======         
           uxCurrentNumberOfTasks
                                   2B30 
    -------------------------------------------------------------------------
DATA20_Z
  Relative segment, address: 2B32 - 2B33 (0x2 bytes), align: 1
  Segment part 14.            Intra module refs:   ?Subroutine16
                                                   vTaskIncrementTick
                                                   vTaskPlaceOnEventList
                                                   vTaskSetTimeOutState
                                                   vTaskStartScheduler
                                                   xTaskCheckForTimeOut
           LOCAL                   ADDRESS         
           =====                   =======         
           xTickCount              2B32 
    -------------------------------------------------------------------------
DATA20_Z
  Relative segment, address: 2B34 - 2B35 (0x2 bytes), align: 1
  Segment part 15.            Intra module refs:   xTaskGenericCreate
           LOCAL                   ADDRESS         
           =====                   =======         
           uxTopUsedPriority       2B34 
    -------------------------------------------------------------------------
DATA20_Z
  Relative segment, address: 2B36 - 2B37 (0x2 bytes), align: 1
  Segment part 16.            Intra module refs:   ?Subroutine12
                                                   ?Subroutine32
                                                   vTaskPriorityInherit
                                                   vTaskSwitchContext
           LOCAL                   ADDRESS         
           =====                   =======         
           uxTopReadyPriority      2B36 
    -------------------------------------------------------------------------
DATA20_Z
  Relative segment, address: 2B38 - 2B39 (0x2 bytes), align: 1
  Segment part 17.            Intra module refs:   vTaskStartScheduler
                                                   xTaskGenericCreate
           LOCAL                   ADDRESS         
           =====                   =======         
           xSchedulerRunning       2B38 
    -------------------------------------------------------------------------
DATA20_Z
  Relative segment, address: 2B3A - 2B3B (0x2 bytes), align: 1
  Segment part 18.            Intra module refs:   ?Subroutine21
                                                   prvCheckTasksWaitingTermination
                                                   vTaskSuspendAll
                                                   xTaskResumeAll
           LOCAL                   ADDRESS         
           =====                   =======         
           uxSchedulerSuspended    2B3A 
    -------------------------------------------------------------------------
DATA20_Z
  Relative segment, address: 2B3C - 2B3D (0x2 bytes), align: 1
  Segment part 19.            Intra module refs:   vTaskIncrementTick
                                                   xTaskResumeAll
           LOCAL                   ADDRESS         
           =====                   =======         
           uxMissedTicks           2B3C 
    -------------------------------------------------------------------------
DATA20_Z
  Relative segment, address: 2B3E - 2B3F (0x2 bytes), align: 1
  Segment part 20.            Intra module refs:   ?Subroutine1
                                                   xTaskResumeAll
           LOCAL                   ADDRESS         
           =====                   =======         
           xMissedYield            2B3E 
    -------------------------------------------------------------------------
DATA20_Z
  Relative segment, address: 2B40 - 2B41 (0x2 bytes), align: 1
  Segment part 21.            Intra module refs:   vTaskIncrementTick
                                                   vTaskSetTimeOutState
                                                   xTaskCheckForTimeOut
           LOCAL                   ADDRESS         
           =====                   =======         
           xNumOfOverflows         2B40 
    -------------------------------------------------------------------------
DATA20_Z
  Relative segment, address: 2B42 - 2B43 (0x2 bytes), align: 1
  Segment part 22.            Intra module refs:   xTaskGenericCreate
           LOCAL                   ADDRESS         
           =====                   =======         
           uxTaskNumber            2B42 
    -------------------------------------------------------------------------
<CODE> 1 (was CODE)
  Relative segment, address: 89B4 - 89C1 (0xe bytes), align: 1
  Segment part 57.            Intra module refs:   xTaskCheckForTimeOut
           LOCAL                   ADDRESS         
           =====                   =======         
           ?Subroutine17           89B4 
    -------------------------------------------------------------------------
<CODE> 1 (was CODE)
  Relative segment, address: 89C2 - 89D5 (0x14 bytes), align: 1
  Segment part 58.            Intra module refs:   xTaskCheckForTimeOut
           LOCAL                   ADDRESS         
           =====                   =======         
           ?Subroutine8            89C2 
    -------------------------------------------------------------------------
<CODE> 1 (was CODE)
  Relative segment, address: 89D6 - 89D9 (0x4 bytes), align: 1
  Segment part 60.            Intra module refs:   ?Subroutine17
                                                   prvCheckTasksWaitingTermination
                                                   vTaskStartScheduler
           LOCAL                   ADDRESS         
           =====                   =======         
           ?Subroutine30           89D6 
    -------------------------------------------------------------------------
<CODE> 1 (was CODE)
  Relative segment, address: 89DA - 89E7 (0xe bytes), align: 1
  Segment part 61.            Intra module refs:   ?Subroutine22
                                                   ?Subroutine30
    -------------------------------------------------------------------------
<CODE> 1 (was CODE)
  Relative segment, address: 89E8 - 8ABF (0xd8 bytes), align: 1
  Segment part 62.            Intra module refs:   vTaskStartScheduler
           ENTRY                   ADDRESS         REF BY
           =====                   =======         ======
           xTaskGenericCreate      89E8            BT_thread_create (BT_os)
               calls direct
               CSTACK = 00000000 ( 00000026 )
    -------------------------------------------------------------------------
<CODE> 1 (was CODE)
  Relative segment, address: 8AC0 - 8AC3 (0x4 bytes), align: 1
  Segment part 63.            Intra module refs:   xTaskGenericCreate
           LOCAL                   ADDRESS         
           =====                   =======         
           ?Subroutine9            8AC0 
    -------------------------------------------------------------------------
<CODE> 1 (was CODE)
  Relative segment, address: 8AC4 - 8AC5 (0x2 bytes), align: 1
  Segment part 64.            Intra module refs:   ?Subroutine9
                                                   vTaskPriorityDisinherit
    -------------------------------------------------------------------------
<CODE> 1 (was CODE)
  Relative segment, address: 8AC6 - 8ACF (0xa bytes), align: 1
  Segment part 65.            Intra module refs:   ?Subroutine9
                                                   Segment part 64
                                                   vTaskIncrementTick
                                                   vTaskPriorityInherit
                                                   xTaskResumeAll
           LOCAL                   ADDRESS         
           =====                   =======         
           ?Subroutine28           8AC6 
    -------------------------------------------------------------------------
<CODE> 1 (was CODE)
  Relative segment, address: 8AD0 - 8AE3 (0x14 bytes), align: 1
  Segment part 66.            Intra module refs:   prvCheckTasksWaitingTermination
                                                   xTaskGenericCreate
           LOCAL                   ADDRESS         
           =====                   =======         
           ?Subroutine7            8AD0 
    -------------------------------------------------------------------------
<CODE> 1 (was CODE)
  Relative segment, address: 8AE4 - 8B21 (0x3e bytes), align: 1
  Segment part 67.
           ENTRY                   ADDRESS         REF BY
           =====                   =======         ======
           vTaskStartScheduler     8AE4            main (main)
               calls direct
               CSTACK = 00000000 ( 00000012 )
    -------------------------------------------------------------------------
<CODE> 1 (was CODE)
  Relative segment, address: 8B22 - 8B2D (0xc bytes), align: 1
  Segment part 70.            Intra module refs:   xTaskRemoveFromEventList
           LOCAL                   ADDRESS         
           =====                   =======         
           ?Subroutine24           8B22 
    -------------------------------------------------------------------------
<CODE> 1 (was CODE)
  Relative segment, address: 8B2E - 8B3B (0xe bytes), align: 1
  Segment part 72.            Intra module refs:   xTaskResumeAll
           LOCAL                   ADDRESS         
           =====                   =======         
           ?Subroutine31           8B2E 
    -------------------------------------------------------------------------
<CODE> 1 (was CODE)
  Relative segment, address: 8B3C - 8B57 (0x1c bytes), align: 1
  Segment part 73.            Intra module refs:   xTaskResumeAll
           LOCAL                   ADDRESS         
           =====                   =======         
           ?Subroutine29           8B3C 
    -------------------------------------------------------------------------
<CODE> 1 (was CODE)
  Relative segment, address: 8B58 - 8B67 (0x10 bytes), align: 1
  Segment part 75.            Intra module refs:   vTaskPriorityDisinherit
                                                   xTaskGenericCreate
           LOCAL                   ADDRESS         
           =====                   =======         
           ?Subroutine32           8B58 
    -------------------------------------------------------------------------
<CODE> 1 (was CODE)
  Relative segment, address: 8B68 - 8B7B (0x14 bytes), align: 1
  Segment part 77.            Intra module refs:   xTaskResumeAll
           LOCAL                   ADDRESS         
           =====                   =======         
           ?Subroutine4            8B68 
    -------------------------------------------------------------------------
<CODE> 1 (was CODE)
  Relative segment, address: 8B7C - 8B89 (0xe bytes), align: 1
  Segment part 79.            Intra module refs:   xTaskGenericCreate
           LOCAL                   ADDRESS         
           =====                   =======         
           ?Subroutine26           8B7C 
    -------------------------------------------------------------------------
<CODE> 1 (was CODE)
  Relative segment, address: 8B8A - 8BA5 (0x1c bytes), align: 1
  Segment part 80.            Intra module refs:   xTaskGenericCreate
           LOCAL                   ADDRESS         
           =====                   =======         
           ?Subroutine20           8B8A 
    -------------------------------------------------------------------------
DATA20_Z
  Relative segment, address: 2B44 - 2B47 (0x4 bytes), align: 1
  Segment part 27.            Intra module refs:   vTaskPlaceOnEventList
           LOCAL                   ADDRESS         
           =====                   =======         
           vTaskPlaceOnEventList::DelayedTaskList
                                   2B44 
    -------------------------------------------------------------------------
DATA20_Z
  Relative segment, address: 2B48 - 2B4B (0x4 bytes), align: 1
  Segment part 28.            Intra module refs:   vTaskPlaceOnEventList
           LOCAL                   ADDRESS         
           =====                   =======         
           vTaskPlaceOnEventList::OverflowDelayedTaskList
                                   2B48 
    -------------------------------------------------------------------------
<CODE> 1 (was CODE)
  Relative segment, address: 8BA6 - 8BA7 (0x2 bytes), align: 1
  Segment part 81.            Intra module refs:   prvCheckTasksWaitingTermination
                                                   xTaskRemoveFromEventList
           LOCAL                   ADDRESS         
           =====                   =======         
           ?Subroutine6            8BA6 
    -------------------------------------------------------------------------
<CODE> 1 (was CODE)
  Relative segment, address: 8BA8 - 8BAF (0x8 bytes), align: 1
  Segment part 82.            Intra module refs:   ?Subroutine6
                                                   vTaskPlaceOnEventList
                                                   vTaskPriorityDisinherit
                                                   vTaskPriorityInherit
                                                   xTaskResumeAll
           LOCAL                   ADDRESS         
           =====                   =======         
           ?Subroutine27           8BA8 
    -------------------------------------------------------------------------
<CODE> 1 (was CODE)
  Relative segment, address: 8BB0, align: 1
  Segment part 42.
           ENTRY                   ADDRESS         REF BY
           =====                   =======         ======
           vTaskMissedYield        8BB0            ?Subroutine12 (queue)
               CSTACK = 00000000 ( 00000004 )
    -------------------------------------------------------------------------
<CODE> 1 (was CODE)
  Relative segment, address: 8BB0 - 8BB7 (0x8 bytes), align: 1
  Segment part 43.            Intra module refs:   vTaskMissedYield
                                                   vTaskSwitchContext
           LOCAL                   ADDRESS         
           =====                   =======         
           ?Subroutine1            8BB0 
    -------------------------------------------------------------------------
<CODE> 1 (was CODE)
  Relative segment, address: 8BB8 - 8BC9 (0x12 bytes), align: 1
  Segment part 44.            Intra module refs:   xTaskCheckForTimeOut
           ENTRY                   ADDRESS         REF BY
           =====                   =======         ======
           vTaskSetTimeOutState    8BB8            xQueueGenericReceive (queue)
                                                   xQueueGenericSend (queue)
               CSTACK = 00000000 ( 00000004 )
    -------------------------------------------------------------------------
<CODE> 1 (was CODE)
  Relative segment, address: 8BCA - 8C0D (0x44 bytes), align: 1
  Segment part 45.
           ENTRY                   ADDRESS         REF BY
           =====                   =======         ======
           xTaskCheckForTimeOut    8BCA            xQueueGenericReceive (queue)
                                                   xQueueGenericSend (queue)
               calls direct
               CSTACK = 00000000 ( 00000014 )
    -------------------------------------------------------------------------
<CODE> 1 (was CODE)
  Relative segment, address: 8C0E - 8C65 (0x58 bytes), align: 1
  Segment part 46.
           ENTRY                   ADDRESS         REF BY
           =====                   =======         ======
           xTaskRemoveFromEventList
                                   8C0E            ?Subroutine12 (queue)
                                                   Segment part 21 (queue)
                                                   xQueueGenericReceive (queue)
                                                   xQueueGenericSend (queue)
               calls direct
               CSTACK = 00000000 ( 00000008 )
    -------------------------------------------------------------------------
<CODE> 1 (was CODE)
  Relative segment, address: 8C66 - 8C6D (0x8 bytes), align: 1
  Segment part 47.            Intra module refs:   vTaskIncrementTick
                                                   vTaskSwitchContext
                                                   xTaskRemoveFromEventList
                                                   xTaskResumeAll
           LOCAL                   ADDRESS         
           =====                   =======         
           ?Subroutine21           8C66 
    -------------------------------------------------------------------------
<CODE> 1 (was CODE)
  Relative segment, address: 8C6E - 8CBF (0x52 bytes), align: 1
  Segment part 48.
           ENTRY                   ADDRESS         REF BY
           =====                   =======         ======
           vTaskPlaceOnEventList   8C6E            ?Subroutine10 (queue)
               calls direct
               CSTACK = 00000000 ( 0000000C )
    -------------------------------------------------------------------------
<CODE> 1 (was CODE)
  Relative segment, address: 8CC0 - 8CC1 (0x2 bytes), align: 1
  Segment part 49.            Intra module refs:   vTaskPlaceOnEventList
           LOCAL                   ADDRESS         
           =====                   =======         
           ?Subroutine25           8CC0 
    -------------------------------------------------------------------------
<CODE> 1 (was CODE)
  Relative segment, address: 8CC2 - 8CC9 (0x8 bytes), align: 1
  Segment part 50.            Intra module refs:   ?Subroutine25
    -------------------------------------------------------------------------
<CODE> 1 (was CODE)
  Relative segment, address: 8CCA - 8CFB (0x32 bytes), align: 1
  Segment part 51.
           ENTRY                   ADDRESS         REF BY
           =====                   =======         ======
           vTaskSwitchContext      8CCA            Absolute parts (portext)
               CSTACK = 00000000 ( 00000004 )
    -------------------------------------------------------------------------
<CODE> 3 (was CODE)
  Relative segment, address: 00016AFE - 00016B05 (0x8 bytes), align: 1
  Segment part 85.            Intra module refs:   prvIdleTask
           LOCAL                   ADDRESS         
           =====                   =======         
           ?Subroutine22           00016AFE 
    -------------------------------------------------------------------------
<CODE> 3 (was CODE)
  Relative segment, address: 0001676A - 00016777 (0xe bytes), align: 1
  Segment part 86.            Intra module refs:   vTaskPlaceOnEventList
           LOCAL                   ADDRESS         
           =====                   =======         
           ?Subroutine16           0001676A 
    -------------------------------------------------------------------------
<CODE> 3 (was CODE)
  Relative segment, address: 00016B16 - 00016B1D (0x8 bytes), align: 1
  Segment part 37.
           ENTRY                   ADDRESS         REF BY
           =====                   =======         ======
           vTaskSuspendAll         00016B16        pvPortMalloc (heap_2)
                                                   vPortFree (heap_2)
                                                   xQueueGenericReceive (queue)
                                                   xQueueGenericSend (queue)
               CSTACK = 00000000 ( 00000004 )
    -------------------------------------------------------------------------
<CODE> 3 (was CODE)
  Relative segment, address: 00011E8C - 00011F2F (0xa4 bytes), align: 1
  Segment part 34.            Intra module refs:   prvCheckTasksWaitingTermination
           ENTRY                   ADDRESS         REF BY
           =====                   =======         ======
           xTaskResumeAll          00011E8C        ?Subroutine17 (queue)
                                                   pvPortMalloc (heap_2)
                                                   vPortFree (heap_2)
               calls direct
               CSTACK = 00000000 ( 0000001C )
    -------------------------------------------------------------------------
<CODE> 3 (was CODE)
  Relative segment, address: 00016B1E - 00016B25 (0x8 bytes), align: 1
  Segment part 35.            Intra module refs:   vTaskIncrementTick
                                                   xTaskRemoveFromEventList
                                                   xTaskResumeAll
           LOCAL                   ADDRESS         
           =====                   =======         
           ?Subroutine13           00016B1E 
    -------------------------------------------------------------------------
<CODE> 3 (was CODE)
  Relative segment, address: 0001641E - 0001642D (0x10 bytes), align: 1
  Segment part 36.            Intra module refs:   vTaskIncrementTick
                                                   xTaskRemoveFromEventList
                                                   xTaskResumeAll
           LOCAL                   ADDRESS         
           =====                   =======         
           ?Subroutine12           0001641E 
    -------------------------------------------------------------------------
<CODE> 3 (was CODE)
  Relative segment, address: 00012952 - 000129D7 (0x86 bytes), align: 1
  Segment part 33.            Intra module refs:   xTaskResumeAll
           ENTRY                   ADDRESS         REF BY
           =====                   =======         ======
           vTaskIncrementTick      00012952        Absolute parts (portext)
               calls direct
               CSTACK = 00000000 ( 00000014 )
    -------------------------------------------------------------------------
<CODE> 3 (was CODE)
  Relative segment, address: 00015ABC - 00015ADF (0x24 bytes), align: 1
  Segment part 52.            Intra module refs:   vTaskSwitchContext
           LOCAL                   ADDRESS         
           =====                   =======         
           ?Subroutine14           00015ABC 
    -------------------------------------------------------------------------
<CODE> 3 (was CODE)
  Relative segment, address: 0001604C - 00016061 (0x16 bytes), align: 1
  Segment part 41.            Intra module refs:   vTaskStartScheduler
           LOCAL                   ADDRESS         
           =====                   =======         
           prvIdleTask             0001604C 
               calls direct
               CSTACK = 00000000 ( 00000004 )
    -------------------------------------------------------------------------
<CODE> 3 (was CODE)
  Relative segment, address: 0001457A - 000145C9 (0x50 bytes), align: 1
  Segment part 40.            Intra module refs:   xTaskGenericCreate
           LOCAL                   ADDRESS         
           =====                   =======         
           prvInitialiseTCBVariables
                                   0001457A 
               calls direct
               CSTACK = 00000000 ( 0000000C )
    -------------------------------------------------------------------------
<CODE> 3 (was CODE)
  Relative segment, address: 00014528 - 00014579 (0x52 bytes), align: 1
  Segment part 39.            Intra module refs:   xTaskGenericCreate
           LOCAL                   ADDRESS         
           =====                   =======         
           prvInitialiseTaskLists
                                   00014528 
               calls direct
               CSTACK = 00000000 ( 00000008 )
    -------------------------------------------------------------------------
<CODE> 3 (was CODE)
  Relative segment, address: 0001383A - 000138A5 (0x6c bytes), align: 1
  Segment part 38.            Intra module refs:   prvIdleTask
           LOCAL                   ADDRESS         
           =====                   =======         
           prvCheckTasksWaitingTermination
                                   0001383A 
               calls direct
               CSTACK = 00000000 ( 0000000C )
    -------------------------------------------------------------------------
<CODE> 3 (was CODE)
  Relative segment, address: 000149EC - 00014A31 (0x46 bytes), align: 1
  Segment part 32.            Intra module refs:   xTaskGenericCreate
           LOCAL                   ADDRESS         
           =====                   =======         
           prvAllocateTCBAndStack
                                   000149EC 
               calls direct
               CSTACK = 00000000 ( 00000014 )
    -------------------------------------------------------------------------
<CODE> 3 (was CODE)
  Relative segment, address: 00016BA4 - 00016BA9 (0x6 bytes), align: 1
  Segment part 31.
           ENTRY                   ADDRESS         REF BY
           =====                   =======         ======
           xTaskGetCurrentTaskHandle
                                   00016BA4        xQueueGenericReceive (queue)
               CSTACK = 00000000 ( 00000004 )
    -------------------------------------------------------------------------
<CODE> 3 (was CODE)
  Relative segment, address: 000139E4 - 00013A4B (0x68 bytes), align: 1
  Segment part 30.
           ENTRY                   ADDRESS         REF BY
           =====                   =======         ======
           vTaskPriorityInherit    000139E4        xQueueGenericReceive (queue)
               calls direct
               CSTACK = 00000000 ( 00000014 )
    -------------------------------------------------------------------------
<CODE> 3 (was CODE)
  Relative segment, address: 000150CA - 00015103 (0x3a bytes), align: 1
  Segment part 29.
           ENTRY                   ADDRESS         REF BY
           =====                   =======         ======
           vTaskPriorityDisinherit
                                   000150CA        prvCopyDataToQueue (queue)
               calls direct
               CSTACK = 00000000 ( 00000008 )
    -------------------------------------------------------------------------
DATA20_C
  Relative segment, address: 0001702C - 00017030 (0x5 bytes), align: 0
  Segment part 2.             Intra module refs:   vTaskStartScheduler

    *************************************************************************

  FILE NAME : C:\Texas Instruments\EZ430-RF2560 SDK\Beta_1_0\EZ430-RF2560_Applications\Source\bluetooth\build\msp430\spp\accl\iar\release\Debug\Obj\user_task.r43
  PROGRAM MODULE, NAME : user_task

  SEGMENTS IN THE MODULE
  ======================
DATA20_I
  Relative segment, address: 1C04 - 1C1B (0x18 bytes), align: 1
  Segment part 12.
           ENTRY                   ADDRESS         REF BY
           =====                   =======         ======
           bt_os_thread_property   1C04            get_task_details (BT_os)
    -------------------------------------------------------------------------
DATA20_Z
  Relative segment, address: 3FAA - 3FBD (0x14 bytes), align: 0
  Segment part 14.            Intra module refs:   TIMER1_A0_ISR
                                                   user_task_routine
           ENTRY                   ADDRESS         REF BY
           =====                   =======         ======
           circular_user_buffer    3FAA            PORT2_VECTOR_ISR (appl_menu_pl)
    -------------------------------------------------------------------------
DATA20_Z
  Relative segment, address: 2B4C - 2B4D (0x2 bytes), align: 1
  Segment part 15.            Intra module refs:   TIMER1_A0_ISR
                                                   user_task_routine
           ENTRY                   ADDRESS         REF BY
           =====                   =======         ======
           circular_user_buf_rd    2B4C            PORT2_VECTOR_ISR (appl_menu_pl)
    -------------------------------------------------------------------------
DATA20_Z
  Relative segment, address: 2B4E - 2B4F (0x2 bytes), align: 1
  Segment part 16.            Intra module refs:   TIMER1_A0_ISR
                                                   user_task_routine
           ENTRY                   ADDRESS         REF BY
           =====                   =======         ======
           circular_user_buf_wt    2B4E            PORT2_VECTOR_ISR (appl_menu_pl)
    -------------------------------------------------------------------------
DATA20_Z
  Relative segment, address: 2B50 - 2B51 (0x2 bytes), align: 1
  Segment part 17.            Intra module refs:   TIMER1_A0_ISR
                                                   user_task_routine
           ENTRY                   ADDRESS         REF BY
           =====                   =======         ======
           user_buf_len            2B50            PORT2_VECTOR_ISR (appl_menu_pl)
    -------------------------------------------------------------------------
DATA20_I
  Relative segment, address: 1C51 - 1C51 (0x1 bytes), align: 0
  Segment part 18.            Intra module refs:   TIMER1_A0_ISR
           LOCAL                   ADDRESS         
           =====                   =======         
           inactivity_timeout      1C51 
    -------------------------------------------------------------------------
<CODE> 3 (was CODE)
  Relative segment, address: 000110CC - 00011189 (0xbe bytes), align: 1
  Segment part 22.
           ENTRY                   ADDRESS         REF BY
           =====                   =======         ======
           user_task_routine       000110CC        create_user_task (sdk_pl)
               calls direct
               CSTACK = 00000000 ( 0000000C )
    -------------------------------------------------------------------------
<CODE> 3 (was CODE)
  Relative segment, address: 00016BD8 - 00016BDB (0x4 bytes), align: 1
  Segment part 21.
           ENTRY                   ADDRESS         REF BY
           =====                   =======         ======
           sdk_config_timer        00016BD8        sdk_init_bsp (sdk_pl)
               calls direct
               CSTACK = 00000000 ( 00000004 )
    -------------------------------------------------------------------------
ISR_CODE
  Relative segment, address: 5E82 - 5FE5 (0x164 bytes), align: 1
  Segment part 20.            Intra module refs:   TIMER1_A0_ISR::??INTVEC 98
           ENTRY                   ADDRESS         REF BY
           =====                   =======         ======
           TIMER1_A0_ISR           5E82 
               interrupt function
               calls direct
               CSTACK = 00000000 ( 00000028 )
    -------------------------------------------------------------------------
INTVEC
  Common segment, address: FF80 - FFE3 (0x64 bytes), align: 1
  Segment part 6. ROOT.
           ENTRY                   ADDRESS         REF BY
           =====                   =======         ======
           TIMER1_A0_ISR::??INTVEC 98
                                   FFE2 
    -------------------------------------------------------------------------
DATA20_ID
  Relative segment, address: 00020536 - 0002054D (0x18 bytes), align: 1
  Segment part 13.            Intra module refs:   bt_os_thread_property
    -------------------------------------------------------------------------
DATA20_ID
  Relative segment, address: 00020583 - 00020583 (0x1 bytes), align: 0
  Segment part 19.            Intra module refs:   inactivity_timeout
    -------------------------------------------------------------------------
DATA20_C
  Relative segment, address: 00017031 - 00017039 (0x9 bytes), align: 0
  Segment part 8.             Intra module refs:   Segment part 13
    -------------------------------------------------------------------------
DATA20_C
  Relative segment, address: 0001703A - 00017043 (0xa bytes), align: 0
  Segment part 9.             Intra module refs:   Segment part 13
    -------------------------------------------------------------------------
DATA20_C
  Relative segment, address: 00017044 - 0001704C (0x9 bytes), align: 0
  Segment part 10.            Intra module refs:   Segment part 13
    -------------------------------------------------------------------------
DATA20_C
  Relative segment, address: 0001704D - 00017059 (0xd bytes), align: 0
  Segment part 11.            Intra module refs:   user_task_routine

    *************************************************************************

  FILE NAME : C:\Texas Instruments\EZ430-RF2560 SDK\Beta_1_0\EZ430-RF2560_Applications\Source\bluetooth\build\msp430\spp\lib\iar\libTI_init_script.r43
  LIBRARY MODULE, NAME : vendor_specific_script

  SEGMENTS IN THE MODULE
  ======================
DATA20_C
  Relative segment, address: 0001705A - 000202FE (0x92a5 bytes), align: 0
  Segment part 2.
           ENTRY                   ADDRESS         REF BY
           =====                   =======         ======
           vs_commands             0001705A        app_vendor_specific_init (vendor_specific_init)
    -------------------------------------------------------------------------
DATA20_I
  Relative segment, address: 1C1C - 1C1F (0x4 bytes), align: 1
  Segment part 3.
           ENTRY                   ADDRESS         REF BY
           =====                   =======         ======
           vs_max_commands         1C1C            app_vendor_specific_init (vendor_specific_init)
    -------------------------------------------------------------------------
DATA20_ID
  Relative segment, address: 0002054E - 00020551 (0x4 bytes), align: 1
  Segment part 4.             Intra module refs:   vs_max_commands

    *************************************************************************

  FILE NAME : C:\Texas Instruments\EZ430-RF2560 SDK\Beta_1_0\EZ430-RF2560_Applications\Source\bluetooth\build\msp430\spp\lib\iar\libspp_core.r43
  LIBRARY MODULE, NAME : BT_common

  SEGMENTS IN THE MODULE
  ======================
DATA20_Z
  Relative segment, address: 2B52 - 2B55 (0x4 bytes), align: 1
  Segment part 2.             Intra module refs:   BT_bluetooth_on
                                                   BT_common_bluetooth_on_complete
                                                   BT_ethermind_init
    -------------------------------------------------------------------------
DATA20_Z
  Relative segment, address: 3FBE - 3FBE (0x1 bytes), align: 0
  Segment part 3.             Intra module refs:   BT_bluetooth_on
                                                   BT_common_bluetooth_on_complete
                                                   BT_ethermind_init
    -------------------------------------------------------------------------
<CODE> 3 (was CODE)
  Relative segment, address: 000153AA - 000153DF (0x36 bytes), align: 1
  Segment part 7.
           ENTRY                   ADDRESS         REF BY
           =====                   =======         ======
           BT_ethermind_init       000153AA        main (main)
               calls direct
               CSTACK = 00000000 ( 00000004 )
    -------------------------------------------------------------------------
<CODE> 3 (was CODE)
  Relative segment, address: 00013D7E - 00013DDF (0x62 bytes), align: 1
  Segment part 6.
           ENTRY                   ADDRESS         REF BY
           =====                   =======         ======
           BT_bluetooth_on         00013D7E        user_task_routine (user_task)
               calls direct
               CSTACK = 00000000 ( 00000014 )
    -------------------------------------------------------------------------
<CODE> 3 (was CODE)
  Relative segment, address: 00015BAC - 00015BCB (0x20 bytes), align: 1
  Segment part 4.
           ENTRY                   ADDRESS         REF BY
           =====                   =======         ======
           BT_common_bluetooth_on_complete
                                   00015BAC        hci_transport_read_data (hci_events)
               calls indirect
               CSTACK = 00000000 ( 00000004 )

    -------------------------------------------------------------------------
  LIBRARY MODULE, NAME : BT_timer

  SEGMENTS IN THE MODULE
  ======================
<CODE> 3 (was CODE)
  Relative segment, address: 00016C06 - 00016C07 (0x2 bytes), align: 1
  Segment part 25.
           ENTRY                   ADDRESS         REF BY
           =====                   =======         ======
           timer_init              00016C06        BT_ethermind_init (BT_common)
               CSTACK = 00000000 ( 00000004 )
    -------------------------------------------------------------------------
<CODE> 3 (was CODE)
  Relative segment, address: 00016C08 - 00016C09 (0x2 bytes), align: 1
  Segment part 24.
           ENTRY                   ADDRESS         REF BY
           =====                   =======         ======
           timer_bt_init           00016C08        BT_bluetooth_on (BT_common)
               CSTACK = 00000000 ( 00000004 )
    -------------------------------------------------------------------------
<CODE> 3 (was CODE)
  Relative segment, address: 00016BE4 - 00016BE7 (0x4 bytes), align: 1
  Segment part 22.
           ENTRY                   ADDRESS         REF BY
           =====                   =======         ======
           BT_start_timer          00016BE4        l2cap_command_timeout_handler (l2cap_signal)
                                                   l2cap_connect_rsp (l2cap_connect)
                                                   l2cap_create_command (l2cap_command)
                                                   l2cap_start_config_timer (l2cap_config)
                                                   rfcomm_send_mode_command (rfcomm_outgoing)
                                                   rfcomm_send_mux_command (rfcomm_outgoing)
               CSTACK = 00000000 ( 00000004 )
    -------------------------------------------------------------------------
<CODE> 3 (was CODE)
  Relative segment, address: 00016BE8 - 00016BEB (0x4 bytes), align: 1
  Segment part 21.
           ENTRY                   ADDRESS         REF BY
           =====                   =======         ======
           BT_stop_timer           00016BE8        l2ca_disconnect_req (l2cap_disconnect)
                                                   l2cap_connect_rsp (l2cap_connect)
                                                   l2cap_delete_ce (l2cap_utils)
                                                   l2cap_delete_command (l2cap_command)
                                                   l2cap_move_to_open (l2cap_config)
                                                   rfcomm_free_context (rfcomm_utils)
                                                   rfcomm_search_command (rfcomm_utils)
               CSTACK = 00000000 ( 00000004 )

    -------------------------------------------------------------------------
  LIBRARY MODULE, NAME : db_sdp_interface

  SEGMENTS IN THE MODULE
  ======================
DATA20_Z
  Relative segment, address: 2B56 - 2B59 (0x4 bytes), align: 1
  Segment part 2.             Intra module refs:   Segment part 10
                                                   Segment part 13
                                                   Segment part 18
                                                   db_sdp_init
    -------------------------------------------------------------------------
<CODE> 3 (was CODE)
  Relative segment, address: 00016AC4 - 00016ACD (0xa bytes), align: 1
  Segment part 23.
           ENTRY                   ADDRESS         REF BY
           =====                   =======         ======
           db_sdp_init             00016AC4        ethermind_init_upper_pl (BT_common_pl)
               calls direct
               CSTACK = 00000000 ( 00000004 )
    -------------------------------------------------------------------------
<CODE> 3 (was CODE)
  Relative segment, address: 000168A6 - 000168B1 (0xc bytes), align: 1
  Segment part 13.            Intra module refs:   BT_dbase_activate_record
                                                   BT_dbase_get_attr_value
                                                   BT_dbase_get_rec_handles
                                                   BT_dbase_get_server_channel
    -------------------------------------------------------------------------
<CODE> 1 (was CODE)
  Relative segment, address: D946 - D951 (0xc bytes), align: 1
  Segment part 16.            Intra module refs:   BT_dbase_get_attr_value
    -------------------------------------------------------------------------
<CODE> 1 (was CODE)
  Relative segment, address: D952 - D957 (0x6 bytes), align: 1
  Segment part 17.            Intra module refs:   Segment part 16
                                                   Segment part 20
    -------------------------------------------------------------------------
<CODE> 1 (was CODE)
  Relative segment, address: D958 - D963 (0xc bytes), align: 1
  Segment part 18.            Intra module refs:   BT_dbase_get_server_channel
                                                   Segment part 16
                                                   Segment part 20
    -------------------------------------------------------------------------
<CODE> 1 (was CODE)
  Relative segment, address: D964 - DA91 (0x12e bytes), align: 1
  Segment part 19.
           ENTRY                   ADDRESS         REF BY
           =====                   =======         ======
           BT_dbase_get_rec_handles
                                   D964            sdp_server_get_record_handles (sdp_server)
               calls direct
               CSTACK = 00000000 ( 00000036 )
    -------------------------------------------------------------------------
<CODE> 1 (was CODE)
  Relative segment, address: DA92 - DA9D (0xc bytes), align: 1
  Segment part 20.            Intra module refs:   BT_dbase_get_rec_handles
    -------------------------------------------------------------------------
<CODE> 3 (was CODE)
  Relative segment, address: 00016902 - 00016903 (0x2 bytes), align: 1
  Segment part 21.            Intra module refs:   BT_dbase_activate_record
    -------------------------------------------------------------------------
<CODE> 3 (was CODE)
  Relative segment, address: 00016904 - 0001690B (0x8 bytes), align: 1
  Segment part 22.            Intra module refs:   BT_dbase_get_attr_value
                                                   BT_dbase_get_rec_handles
                                                   BT_dbase_get_server_channel
                                                   Segment part 21
    -------------------------------------------------------------------------
<CODE> 3 (was CODE)
  Relative segment, address: 00016A9C - 00016AA5 (0xa bytes), align: 1
  Segment part 12.            Intra module refs:   BT_dbase_activate_record
                                                   BT_dbase_get_attr_value
                                                   BT_dbase_get_server_channel
    -------------------------------------------------------------------------
<CODE> 1 (was CODE)
  Relative segment, address: F394 - F491 (0xfe bytes), align: 1
  Segment part 15.
           ENTRY                   ADDRESS         REF BY
           =====                   =======         ======
           BT_dbase_get_attr_value
                                   F394            sdp_server_get_attr_values (sdp_server)
               calls direct
               CSTACK = 00000000 ( 00000024 )
    -------------------------------------------------------------------------
<CODE> 3 (was CODE)
  Relative segment, address: 000168F8 - 00016901 (0xa bytes), align: 1
  Segment part 9.             Intra module refs:   BT_dbase_activate_record
    -------------------------------------------------------------------------
<CODE> 3 (was CODE)
  Relative segment, address: 00014BD0 - 00014C13 (0x44 bytes), align: 1
  Segment part 8.
           ENTRY                   ADDRESS         REF BY
           =====                   =======         ======
           BT_dbase_activate_record
                                   00014BD0        appl_spp_start (appl_spp)
               calls direct
               CSTACK = 00000000 ( 00000008 )
    -------------------------------------------------------------------------
<CODE> 3 (was CODE)
  Relative segment, address: 000160BA - 000160CF (0x16 bytes), align: 1
  Segment part 10.            Intra module refs:   BT_dbase_activate_record
    -------------------------------------------------------------------------
<CODE> 1 (was CODE)
  Relative segment, address: ED66 - EE71 (0x10c bytes), align: 1
  Segment part 6.
           ENTRY                   ADDRESS         REF BY
           =====                   =======         ======
           BT_dbase_get_server_channel
                                   ED66            appl_spp_start (appl_spp)
               calls direct
               CSTACK = 00000000 ( 0000002C )
    -------------------------------------------------------------------------
<CODE> 3 (was CODE)
  Relative segment, address: 00014234 - 00014289 (0x56 bytes), align: 1
  Segment part 5.             Intra module refs:   BT_dbase_get_rec_handles
           ENTRY                   ADDRESS         REF BY
           =====                   =======         ======
           db_sdp_match_uuid_list
                                   00014234 
               CSTACK = 00000000 ( 0000001C )

    -------------------------------------------------------------------------
  LIBRARY MODULE, NAME : hci_api

  SEGMENTS IN THE MODULE
  ======================
<CODE> 1 (was CODE)
  Relative segment, address: F292 - F2A7 (0x16 bytes), align: 1
  Segment part 3.
           ENTRY                   ADDRESS         REF BY
           =====                   =======         ======
           hci_write_command_UINT16
                                   F292            ?Subroutine9 (appl_cb)
                                                   hci_handle_init_sequence (hci_init)
                                                   sdk_bluetooth_menu_handler (appl_sdk)
               calls direct
               CSTACK = 00000000 ( 00000026 )
    -------------------------------------------------------------------------
<CODE> 1 (was CODE)
  Relative segment, address: F2A8 - F2B1 (0xa bytes), align: 1
  Segment part 4.             Intra module refs:   BT_hci_vendor_specific_command
                                                   hci_write_command_UCHAR
                                                   hci_write_command_UINT16
    -------------------------------------------------------------------------
<CODE> 1 (was CODE)
  Relative segment, address: F2B2 - F2C7 (0x16 bytes), align: 1
  Segment part 5.
           ENTRY                   ADDRESS         REF BY
           =====                   =======         ======
           hci_write_command_UCHAR
                                   F2B2            Segment part 32 (appl_cb)
                                                   appl_bluetooth_on_complete_event_handler (appl_sdk)
                                                   hci_handle_init_sequence (hci_init)
                                                   sdk_hci_event_indication_callback (appl_cb)
               calls direct
               CSTACK = 00000000 ( 00000026 )
    -------------------------------------------------------------------------
<CODE> 1 (was CODE)
  Relative segment, address: F2C8 - F2EB (0x24 bytes), align: 1
  Segment part 10.
           ENTRY                   ADDRESS         REF BY
           =====                   =======         ======
           BT_hci_vendor_specific_command
                                   F2C8            ?Subroutine0 (appl_bt_rf)
                                                   Segment part 20 (vendor_specific_init)
                                                   app_vendor_specific_init (vendor_specific_init)
                                                   sdk_change_controller_baudrate (msp430_uart)
                                                   sdk_deep_sleep_config (appl_bt_rf)
                                                   sdk_enable_lps_mode (appl_bt_rf)
                                                   send_calibration_command (vendor_specific_init)
                                                   send_single_power_table (vendor_specific_init)
               calls direct
               CSTACK = 00000000 ( 00000026 )
    -------------------------------------------------------------------------
<CODE> 1 (was CODE)
  Relative segment, address: F2EC - F333 (0x48 bytes), align: 1
  Segment part 20.
           ENTRY                   ADDRESS         REF BY
           =====                   =======         ======
           BT_hci_get_acl_connection_handle
                                   F2EC            BT_hci_create_connection (hci_link_control_api)
               calls direct
               CSTACK = 00000000 ( 0000000C )
    -------------------------------------------------------------------------
<CODE> 1 (was CODE)
  Relative segment, address: F334 - F345 (0x12 bytes), align: 1
  Segment part 21.            Intra module refs:   BT_hci_get_acl_connection_handle
    -------------------------------------------------------------------------
<CODE> 1 (was CODE)
  Relative segment, address: F346 - F34D (0x8 bytes), align: 1
  Segment part 22.            Intra module refs:   BT_hci_register_event_indication_callback
                                                   Segment part 21
    -------------------------------------------------------------------------
<CODE> 1 (was CODE)
  Relative segment, address: F34E - F359 (0xc bytes), align: 1
  Segment part 23.            Intra module refs:   BT_hci_get_acl_connection_handle
                                                   BT_hci_register_event_indication_callback
    -------------------------------------------------------------------------
<CODE> 1 (was CODE)
  Relative segment, address: F35A - F393 (0x3a bytes), align: 1
  Segment part 26.
           ENTRY                   ADDRESS         REF BY
           =====                   =======         ======
           BT_hci_register_event_indication_callback
                                   F35A            BT_bluetooth_on (BT_common)
               calls direct
               CSTACK = 00000000 ( 0000000C )
    -------------------------------------------------------------------------
<CODE> 3 (was CODE)
  Relative segment, address: 000158C6 - 000158ED (0x28 bytes), align: 1
  Segment part 2.
           ENTRY                   ADDRESS         REF BY
           =====                   =======         ======
           hci_write_command_UINT16_UINT16
                                   000158C6        sdk_hci_event_indication_callback (appl_cb)
               calls direct
               CSTACK = 00000000 ( 00000028 )

    -------------------------------------------------------------------------
  LIBRARY MODULE, NAME : hci_command_queue

  SEGMENTS IN THE MODULE
  ======================
<CODE> 3 (was CODE)
  Relative segment, address: 00015414 - 00015447 (0x34 bytes), align: 1
  Segment part 6.             Intra module refs:   hci_common_api_bh
           ENTRY                   ADDRESS         REF BY
           =====                   =======         ======
           hci_trigger_command_tx
                                   00015414        Segment part 25 (hci_events)
                                                   ehcill_handle_wake_up_ack (appl_bt_rf)
                                                   ehcill_handle_wake_up_ind (appl_bt_rf)
               calls direct
               CSTACK = 00000000 ( 00000008 )
    -------------------------------------------------------------------------
<CODE> 3 (was CODE)
  Relative segment, address: 00012300 - 0001239D (0x9e bytes), align: 1
  Segment part 7.
           ENTRY                   ADDRESS         REF BY
           =====                   =======         ======
           hci_common_api_bh       00012300        hci_common_api_handler (hci_commands)
               calls direct
               CSTACK = 00000000 ( 00000014 )
    -------------------------------------------------------------------------
<CODE> 1 (was CODE)
  Relative segment, address: BD8A - BF75 (0x1ec bytes), align: 1
  Segment part 2.             Intra module refs:   hci_trigger_command_tx
           ENTRY                   ADDRESS         REF BY
           =====                   =======         ======
           hci_command_tx_bh       BD8A 
               calls direct
               CSTACK = 00000000 ( 0000002A )
    -------------------------------------------------------------------------
<CODE> 3 (was CODE)
  Relative segment, address: 0001692A - 00016933 (0xa bytes), align: 1
  Segment part 3.             Intra module refs:   hci_command_tx_bh
    -------------------------------------------------------------------------
<CODE> 3 (was CODE)
  Relative segment, address: 00016324 - 00016325 (0x2 bytes), align: 1
  Segment part 4.             Intra module refs:   hci_command_tx_bh
    -------------------------------------------------------------------------
<CODE> 3 (was CODE)
  Relative segment, address: 00016326 - 00016335 (0x10 bytes), align: 1
  Segment part 5.             Intra module refs:   Segment part 4
                                                   hci_command_tx_bh

    -------------------------------------------------------------------------
  LIBRARY MODULE, NAME : hci_commands

  SEGMENTS IN THE MODULE
  ======================
<CODE> 1 (was CODE)
  Relative segment, address: 6E86 - 750F (0x68a bytes), align: 1
  Segment part 2.             Intra module refs:   hci_common_api_handler_no_params
           ENTRY                   ADDRESS         REF BY
           =====                   =======         ======
           hci_common_api_handler
                                   6E86            BT_hci_change_local_name (hci_host_controller_api)
                                                   BT_hci_create_connection (hci_link_control_api)
                                                   BT_hci_disconnect (hci_link_control_api)
                                                   BT_hci_inquiry (hci_link_control_api)
                                                   BT_hci_remote_name_request (hci_link_control_api)
                                                   BT_hci_set_event_mask (hci_host_controller_api)
                                                   BT_hci_sniff_mode (hci_link_policy_api)
                                                   BT_hci_write_class_of_device (hci_host_controller_api)
                                                   BT_hci_write_current_iac_lap (hci_host_controller_api)
                                                   Segment part 4 (hci_api)
                                                   Segment part 8 (hci_sm)
                                                   hci_connection_request_event (hci_connect)
                                                   hci_connection_response (hci_connect)
                                                   hci_sm_auth_encr_change_link_key (hci_sm)
                                                   hci_write_command_UINT16_UINT16 (hci_api)
               calls direct
               CSTACK = 00000000 ( 0000003C )
    -------------------------------------------------------------------------
<CODE> 3 (was CODE)
  Relative segment, address: 00016948 - 00016951 (0xa bytes), align: 1
  Segment part 3.             Intra module refs:   hci_common_api_handler
    -------------------------------------------------------------------------
<CODE> 3 (was CODE)
  Relative segment, address: 000164AE - 000164B1 (0x4 bytes), align: 1
  Segment part 4.             Intra module refs:   Segment part 3
                                                   hci_common_api_handler
    -------------------------------------------------------------------------
<CODE> 3 (was CODE)
  Relative segment, address: 000164B2 - 000164B7 (0x6 bytes), align: 1
  Segment part 5.             Intra module refs:   Segment part 4
                                                   Segment part 6
    -------------------------------------------------------------------------
<CODE> 3 (was CODE)
  Relative segment, address: 000164B8 - 000164BD (0x6 bytes), align: 1
  Segment part 6.             Intra module refs:   hci_common_api_handler
    -------------------------------------------------------------------------
<CODE> 3 (was CODE)
  Relative segment, address: 0001695C - 00016965 (0xa bytes), align: 1
  Segment part 7.             Intra module refs:   hci_common_api_handler
    -------------------------------------------------------------------------
<CODE> 3 (was CODE)
  Relative segment, address: 00016B3E - 00016B45 (0x8 bytes), align: 1
  Segment part 8.             Intra module refs:   hci_common_api_handler
    -------------------------------------------------------------------------
<CODE> 3 (was CODE)
  Relative segment, address: 00016966 - 0001696F (0xa bytes), align: 1
  Segment part 9.             Intra module refs:   hci_common_api_handler
    -------------------------------------------------------------------------
<CODE> 3 (was CODE)
  Relative segment, address: 00016698 - 0001669B (0x4 bytes), align: 1
  Segment part 10.            Intra module refs:   Segment part 12
                                                   hci_common_api_handler
    -------------------------------------------------------------------------
<CODE> 3 (was CODE)
  Relative segment, address: 0001669C - 000166A5 (0xa bytes), align: 1
  Segment part 11.            Intra module refs:   Segment part 10
                                                   Segment part 17
                                                   hci_common_api_handler
    -------------------------------------------------------------------------
<CODE> 3 (was CODE)
  Relative segment, address: 000169B6 - 000169BF (0xa bytes), align: 1
  Segment part 12.            Intra module refs:   hci_common_api_handler
    -------------------------------------------------------------------------
<CODE> 3 (was CODE)
  Relative segment, address: 000164EE - 000164FD (0x10 bytes), align: 1
  Segment part 13.            Intra module refs:   Segment part 14
                                                   Segment part 20
                                                   Segment part 21
                                                   hci_common_api_handler
    -------------------------------------------------------------------------
<CODE> 3 (was CODE)
  Relative segment, address: 000169CA - 000169D3 (0xa bytes), align: 1
  Segment part 14.            Intra module refs:   hci_common_api_handler
    -------------------------------------------------------------------------
<CODE> 3 (was CODE)
  Relative segment, address: 00013AB4 - 00013ABF (0xc bytes), align: 1
  Segment part 15.            Intra module refs:   hci_common_api_handler
    -------------------------------------------------------------------------
<CODE> 3 (was CODE)
  Relative segment, address: 00013AC0 - 00013AC5 (0x6 bytes), align: 1
  Segment part 16.            Intra module refs:   Segment part 15
                                                   Segment part 22
    -------------------------------------------------------------------------
<CODE> 3 (was CODE)
  Relative segment, address: 00013AC6 - 00013ACD (0x8 bytes), align: 1
  Segment part 17.            Intra module refs:   Segment part 15
                                                   Segment part 19
    -------------------------------------------------------------------------
<CODE> 3 (was CODE)
  Relative segment, address: 00013ACE - 00013AD7 (0xa bytes), align: 1
  Segment part 18.            Intra module refs:   Segment part 17
                                                   hci_common_api_handler
    -------------------------------------------------------------------------
<CODE> 3 (was CODE)
  Relative segment, address: 00013AD8 - 00013AE1 (0xa bytes), align: 1
  Segment part 19.            Intra module refs:   hci_common_api_handler
    -------------------------------------------------------------------------
<CODE> 3 (was CODE)
  Relative segment, address: 00013AE2 - 00013AF1 (0x10 bytes), align: 1
  Segment part 20.            Intra module refs:   hci_common_api_handler
    -------------------------------------------------------------------------
<CODE> 3 (was CODE)
  Relative segment, address: 00013AF2 - 00013B09 (0x18 bytes), align: 1
  Segment part 21.            Intra module refs:   Segment part 22
                                                   hci_common_api_handler
    -------------------------------------------------------------------------
<CODE> 3 (was CODE)
  Relative segment, address: 00013B0A - 00013B1B (0x12 bytes), align: 1
  Segment part 22.            Intra module refs:   hci_common_api_handler
    -------------------------------------------------------------------------
<CODE> 3 (was CODE)
  Relative segment, address: 000161FE - 00016211 (0x14 bytes), align: 1
  Segment part 23.            Intra module refs:   Segment part 22
                                                   hci_common_api_handler
    -------------------------------------------------------------------------
<CODE> 3 (was CODE)
  Relative segment, address: 000169D4 - 000169DD (0xa bytes), align: 1
  Segment part 24.
           ENTRY                   ADDRESS         REF BY
           =====                   =======         ======
           hci_common_api_handler_no_params
                                   000169D4        hci_bt_init (hci_init)
                                                   hci_handle_init_sequence (hci_init)
               calls direct
               CSTACK = 00000000 ( 00000004 )

    -------------------------------------------------------------------------
  LIBRARY MODULE, NAME : hci_connect

  SEGMENTS IN THE MODULE
  ======================
<CODE> 3 (was CODE)
  Relative segment, address: 00012840 - 000128C9 (0x8a bytes), align: 1
  Segment part 8.
           ENTRY                   ADDRESS         REF BY
           =====                   =======         ======
           hci_sco_connection      00012840        hci_command_tx_bh (hci_command_queue)
               calls direct
               CSTACK = 00000000 ( 0000001E )
    -------------------------------------------------------------------------
<CODE> 1 (was CODE)
  Relative segment, address: DBE8 - DD2F (0x148 bytes), align: 1
  Segment part 6.
           ENTRY                   ADDRESS         REF BY
           =====                   =======         ======
           hci_connection_complete_event
                                   DBE8            hci_event_fp (hci_events)
               calls direct
               CSTACK = 00000000 ( 0000001C )
    -------------------------------------------------------------------------
<CODE> 3 (was CODE)
  Relative segment, address: 000169F2 - 000169FB (0xa bytes), align: 1
  Segment part 7.             Intra module refs:   hci_connection_complete_event
                                                   hci_handle_connection_command_status
    -------------------------------------------------------------------------
<CODE> 1 (was CODE)
  Relative segment, address: F086 - F18D (0x108 bytes), align: 1
  Segment part 4.
           ENTRY                   ADDRESS         REF BY
           =====                   =======         ======
           hci_connection_request_event
                                   F086            hci_event_fp (hci_events)
               calls direct and indirect
               CSTACK = 00000000 ( 0000005A )
    -------------------------------------------------------------------------
<CODE> 3 (was CODE)
  Relative segment, address: 00015A98 - 00015ABB (0x24 bytes), align: 1
  Segment part 3.
           ENTRY                   ADDRESS         REF BY
           =====                   =======         ======
           hci_connection_response
                                   00015A98        hci_sm_connection_request_reply (hci_sm)
               calls direct
               CSTACK = 00000000 ( 00000026 )
    -------------------------------------------------------------------------
<CODE> 3 (was CODE)
  Relative segment, address: 00011F30 - 00011FD3 (0xa4 bytes), align: 1
  Segment part 2.
           ENTRY                   ADDRESS         REF BY
           =====                   =======         ======
           hci_handle_connection_command_status
                                   00011F30        hci_command_status_event (hci_events)
               calls direct
               CSTACK = 00000000 ( 00000024 )
    -------------------------------------------------------------------------
<CODE> 3 (was CODE)
  Relative segment, address: 00015E1E - 00015E37 (0x1a bytes), align: 1
  Segment part 5.             Intra module refs:   hci_connection_request_event

    -------------------------------------------------------------------------
  LIBRARY MODULE, NAME : hci_dev_attr

  SEGMENTS IN THE MODULE
  ======================
<CODE> 3 (was CODE)
  Relative segment, address: 00016294 - 000162A5 (0x12 bytes), align: 1
  Segment part 4.             Intra module refs:   hci_get_device_attr
    -------------------------------------------------------------------------
<CODE> 3 (was CODE)
  Relative segment, address: 0001513E - 00015177 (0x3a bytes), align: 1
  Segment part 2.
           ENTRY                   ADDRESS         REF BY
           =====                   =======         ======
           hci_get_device_attr     0001513E        hci_sm_connection_request_reply (hci_sm)
               calls direct
               CSTACK = 00000000 ( 00000014 )

    -------------------------------------------------------------------------
  LIBRARY MODULE, NAME : hci_disconnect

  SEGMENTS IN THE MODULE
  ======================
<CODE> 3 (was CODE)
  Relative segment, address: 00010DCC - 00010E8F (0xc4 bytes), align: 1
  Segment part 2.
           ENTRY                   ADDRESS         REF BY
           =====                   =======         ======
           hci_disconnection_complete_event
                                   00010DCC        hci_event_fp (hci_events)
               calls direct
               CSTACK = 00000000 ( 00000014 )

    -------------------------------------------------------------------------
  LIBRARY MODULE, NAME : hci_events

  SEGMENTS IN THE MODULE
  ======================
DATA20_C
  Relative segment, address: 00016C0C - 00016D03 (0xf8 bytes), align: 1
  Segment part 3.             Intra module refs:   hci_transport_read_data
           ENTRY                   ADDRESS         REF BY
           =====                   =======         ======
           hci_event_fp            00016C0C 
    -------------------------------------------------------------------------
<CODE> 3 (was CODE)
  Relative segment, address: 00010854 - 0001091F (0xcc bytes), align: 1
  Segment part 27.
           ENTRY                   ADDRESS         REF BY
           =====                   =======         ======
           hci_transport_read_data
                                   00010854        ht_read_task_start_routine (read_task)
               calls direct and indirect
               CSTACK = 00000000 ( 00000014 )
    -------------------------------------------------------------------------
<CODE> 3 (was CODE)
  Relative segment, address: 00016A24 - 00016A2D (0xa bytes), align: 1
  Segment part 28.            Intra module refs:   hci_transport_read_data
    -------------------------------------------------------------------------
<CODE> 3 (was CODE)
  Relative segment, address: 00016B9E - 00016BA3 (0x6 bytes), align: 1
  Segment part 29.            Intra module refs:   hci_transport_read_data
    -------------------------------------------------------------------------
<CODE> 1 (was CODE)
  Relative segment, address: 7A26 - 7A2D (0x8 bytes), align: 1
  Segment part 10.            Intra module refs:   hci_io_capability_event
                                                   hci_link_key_pin_code_request_event
                                                   hci_remote_oob_data_request_event
                                                   hci_user_confirmation_request_event
                                                   hci_user_passkey_notification_event
                                                   hci_user_passkey_request_event
    -------------------------------------------------------------------------
<CODE> 1 (was CODE)
  Relative segment, address: 7A2E - 7A39 (0xc bytes), align: 1
  Segment part 11.            Intra module refs:   Segment part 10
                                                   Segment part 26
                                                   hci_auth_complete_encrypt_change_event
                                                   hci_command_complete_event
                                                   hci_command_status_event
                                                   hci_handle_hardware_error
    -------------------------------------------------------------------------
<CODE> 1 (was CODE)
  Relative segment, address: 7A3A - 7A53 (0x1a bytes), align: 1
  Segment part 12.            Intra module refs:   hci_event_fp
           ENTRY                   ADDRESS         REF BY
           =====                   =======         ======
           hci_io_capability_event
                                   7A3A 
               calls direct
               CSTACK = 00000000 ( 00000008 )
    -------------------------------------------------------------------------
<CODE> 1 (was CODE)
  Relative segment, address: 7A54 - 7AEB (0x98 bytes), align: 1
  Segment part 13.            Intra module refs:   hci_hardware_error_event
           ENTRY                   ADDRESS         REF BY
           =====                   =======         ======
           hci_handle_hardware_error
                                   7A54 
               calls direct
               CSTACK = 00000000 ( 0000001E )
    -------------------------------------------------------------------------
<CODE> 1 (was CODE)
  Relative segment, address: 7AEC - 7B27 (0x3c bytes), align: 1
  Segment part 14.            Intra module refs:   hci_event_fp
           ENTRY                   ADDRESS         REF BY
           =====                   =======         ======
           hci_number_of_completed_packets_event
                                   7AEC 
               calls direct
               CSTACK = 00000000 ( 0000000C )
    -------------------------------------------------------------------------
<CODE> 1 (was CODE)
  Relative segment, address: 7B28 - 7B37 (0x10 bytes), align: 1
  Segment part 15.            Intra module refs:   hci_event_fp
           ENTRY                   ADDRESS         REF BY
           =====                   =======         ======
           hci_change_connection_link_key_complete_event
                                   7B28 
               calls direct
               CSTACK = 00000000 ( 00000008 )
    -------------------------------------------------------------------------
<CODE> 1 (was CODE)
  Relative segment, address: 7B38 - 7B8B (0x54 bytes), align: 1
  Segment part 16.            Intra module refs:   hci_event_fp
           ENTRY                   ADDRESS         REF BY
           =====                   =======         ======
           hci_mode_change_event   7B38 
               calls direct
               CSTACK = 00000000 ( 00000012 )
    -------------------------------------------------------------------------
<CODE> 1 (was CODE)
  Relative segment, address: 7B8C - 7BD5 (0x4a bytes), align: 1
  Segment part 17.            Intra module refs:   hci_event_fp
           ENTRY                   ADDRESS         REF BY
           =====                   =======         ======
           hci_auth_complete_encrypt_change_event
                                   7B8C 
               calls direct
               CSTACK = 00000000 ( 00000016 )
    -------------------------------------------------------------------------
<CODE> 1 (was CODE)
  Relative segment, address: 7BD6 - 7BDB (0x6 bytes), align: 1
  Segment part 18.            Intra module refs:   hci_change_connection_link_key_complete_event
                                                   hci_command_complete_event
    -------------------------------------------------------------------------
<CODE> 1 (was CODE)
  Relative segment, address: 7BDC - 7BE3 (0x8 bytes), align: 1
  Segment part 19.            Intra module refs:   Segment part 18
                                                   hci_auth_complete_encrypt_change_event
                                                   hci_command_status_event
                                                   hci_handle_hardware_error
                                                   hci_io_capability_event
                                                   hci_link_key_notification_event
                                                   hci_link_key_pin_code_request_event
                                                   hci_remote_oob_data_request_event
                                                   hci_user_confirmation_request_event
                                                   hci_user_passkey_notification_event
                                                   hci_user_passkey_request_event
    -------------------------------------------------------------------------
<CODE> 1 (was CODE)
  Relative segment, address: 7BE4 - 7BFF (0x1c bytes), align: 1
  Segment part 20.            Intra module refs:   hci_event_fp
           ENTRY                   ADDRESS         REF BY
           =====                   =======         ======
           hci_link_key_notification_event
                                   7BE4 
               calls direct
               CSTACK = 00000000 ( 00000008 )
    -------------------------------------------------------------------------
<CODE> 1 (was CODE)
  Relative segment, address: 7C00 - 7C19 (0x1a bytes), align: 1
  Segment part 21.            Intra module refs:   hci_event_fp
           ENTRY                   ADDRESS         REF BY
           =====                   =======         ======
           hci_link_key_pin_code_request_event
                                   7C00 
               calls direct
               CSTACK = 00000000 ( 00000008 )
    -------------------------------------------------------------------------
<CODE> 1 (was CODE)
  Relative segment, address: 7C1A - 7C1D (0x4 bytes), align: 1
  Segment part 22.            Intra module refs:   hci_event_fp
           ENTRY                   ADDRESS         REF BY
           =====                   =======         ======
           hci_hardware_error_event
                                   7C1A 
               calls direct
               CSTACK = 00000000 ( 00000004 )
    -------------------------------------------------------------------------
<CODE> 1 (was CODE)
  Relative segment, address: 7C1E - 7CA1 (0x84 bytes), align: 1
  Segment part 23.            Intra module refs:   hci_event_fp
           ENTRY                   ADDRESS         REF BY
           =====                   =======         ======
           hci_command_status_event
                                   7C1E 
               calls direct
               CSTACK = 00000000 ( 0000000E )
    -------------------------------------------------------------------------
<CODE> 1 (was CODE)
  Relative segment, address: 7CA2 - 7EBB (0x21a bytes), align: 1
  Segment part 24.            Intra module refs:   hci_event_fp
           ENTRY                   ADDRESS         REF BY
           =====                   =======         ======
           hci_command_complete_event
                                   7CA2 
               calls direct
               CSTACK = 00000000 ( 00000018 )
    -------------------------------------------------------------------------
<CODE> 1 (was CODE)
  Relative segment, address: 7EBC - 7ED3 (0x18 bytes), align: 1
  Segment part 25.            Intra module refs:   hci_command_complete_event
                                                   hci_command_status_event
    -------------------------------------------------------------------------
<CODE> 1 (was CODE)
  Relative segment, address: 7ED4 - 7ED9 (0x6 bytes), align: 1
  Segment part 26.            Intra module refs:   hci_change_connection_link_key_complete_event
                                                   hci_link_key_notification_event
    -------------------------------------------------------------------------
<CODE> 3 (was CODE)
  Relative segment, address: 00016816 - 00016821 (0xc bytes), align: 1
  Segment part 9.             Intra module refs:   hci_link_key_notification_event
                                                   hci_user_confirmation_request_event
                                                   hci_user_passkey_notification_event
    -------------------------------------------------------------------------
<CODE> 3 (was CODE)
  Relative segment, address: 00015F7C - 00015F93 (0x18 bytes), align: 1
  Segment part 8.             Intra module refs:   hci_event_fp
           ENTRY                   ADDRESS         REF BY
           =====                   =======         ======
           hci_user_confirmation_request_event
                                   00015F7C 
               calls direct
               CSTACK = 00000000 ( 00000008 )
    -------------------------------------------------------------------------
<CODE> 3 (was CODE)
  Relative segment, address: 00015F94 - 00015FAB (0x18 bytes), align: 1
  Segment part 7.             Intra module refs:   hci_event_fp
           ENTRY                   ADDRESS         REF BY
           =====                   =======         ======
           hci_user_passkey_request_event
                                   00015F94 
               calls direct
               CSTACK = 00000000 ( 00000008 )
    -------------------------------------------------------------------------
<CODE> 3 (was CODE)
  Relative segment, address: 00015FDC - 00015FF3 (0x18 bytes), align: 1
  Segment part 6.             Intra module refs:   hci_event_fp
           ENTRY                   ADDRESS         REF BY
           =====                   =======         ======
           hci_user_passkey_notification_event
                                   00015FDC 
               calls direct
               CSTACK = 00000000 ( 00000008 )
    -------------------------------------------------------------------------
<CODE> 3 (was CODE)
  Relative segment, address: 00015F4C - 00015F63 (0x18 bytes), align: 1
  Segment part 5.             Intra module refs:   hci_event_fp
           ENTRY                   ADDRESS         REF BY
           =====                   =======         ======
           hci_remote_oob_data_request_event
                                   00015F4C 
               calls direct
               CSTACK = 00000000 ( 00000008 )
    -------------------------------------------------------------------------
<CODE> 3 (was CODE)
  Relative segment, address: 00016C0A - 00016C0B (0x2 bytes), align: 1
  Segment part 4.             Intra module refs:   hci_event_fp
           ENTRY                   ADDRESS         REF BY
           =====                   =======         ======
           hci_unimplemented_event
                                   00016C0A 
               CSTACK = 00000000 ( 00000004 )
    -------------------------------------------------------------------------
DATA16_C
  Relative segment, address: 5FEE - 5FF5 (0x8 bytes), align: 0
  Segment part 2.             Intra module refs:   hci_command_complete_event

    -------------------------------------------------------------------------
  LIBRARY MODULE, NAME : hci_host_controller_api

  SEGMENTS IN THE MODULE
  ======================
<CODE> 1 (was CODE)
  Relative segment, address: E47E - E483 (0x6 bytes), align: 1
  Segment part 10.            Intra module refs:   BT_hci_set_event_mask
    -------------------------------------------------------------------------
<CODE> 1 (was CODE)
  Relative segment, address: E484 - E4F7 (0x74 bytes), align: 1
  Segment part 13.
           ENTRY                   ADDRESS         REF BY
           =====                   =======         ======
           BT_hci_write_current_iac_lap
                                   E484            sdk_hci_event_indication_callback (appl_cb)
               calls direct
               CSTACK = 00000000 ( 0000003E )
    -------------------------------------------------------------------------
<CODE> 1 (was CODE)
  Relative segment, address: E4F8 - E4FD (0x6 bytes), align: 1
  Segment part 16.            Intra module refs:   BT_hci_change_local_name
    -------------------------------------------------------------------------
<CODE> 1 (was CODE)
  Relative segment, address: E4FE - E509 (0xc bytes), align: 1
  Segment part 18.            Intra module refs:   BT_hci_write_class_of_device
    -------------------------------------------------------------------------
<CODE> 1 (was CODE)
  Relative segment, address: E50A - E50F (0x6 bytes), align: 1
  Segment part 21.            Intra module refs:   Segment part 31
    -------------------------------------------------------------------------
<CODE> 1 (was CODE)
  Relative segment, address: E510 - E515 (0x6 bytes), align: 1
  Segment part 25.            Intra module refs:   BT_hci_write_class_of_device
    -------------------------------------------------------------------------
<CODE> 1 (was CODE)
  Relative segment, address: E516 - E531 (0x1c bytes), align: 1
  Segment part 28.
           ENTRY                   ADDRESS         REF BY
           =====                   =======         ======
           BT_hci_write_class_of_device
                                   E516            sdk_hci_event_indication_callback (appl_cb)
               calls direct
               CSTACK = 00000000 ( 00000028 )
    -------------------------------------------------------------------------
<CODE> 1 (was CODE)
  Relative segment, address: E532 - E575 (0x44 bytes), align: 1
  Segment part 30.
           ENTRY                   ADDRESS         REF BY
           =====                   =======         ======
           BT_hci_change_local_name
                                   E532            hci_handle_init_sequence (hci_init)
               calls direct
               CSTACK = 00000000 ( 00000026 )
    -------------------------------------------------------------------------
<CODE> 1 (was CODE)
  Relative segment, address: E576 - E581 (0xc bytes), align: 1
  Segment part 31.            Intra module refs:   BT_hci_change_local_name
    -------------------------------------------------------------------------
<CODE> 1 (was CODE)
  Relative segment, address: E582 - E5A3 (0x22 bytes), align: 1
  Segment part 34.
           ENTRY                   ADDRESS         REF BY
           =====                   =======         ======
           BT_hci_set_event_mask   E582            hci_bt_init (hci_init)
                                                   hci_command_complete_event (hci_events)
               calls direct
               CSTACK = 00000000 ( 00000024 )

    -------------------------------------------------------------------------
  LIBRARY MODULE, NAME : hci_init

  SEGMENTS IN THE MODULE
  ======================
DATA20_Z
  Relative segment, address: 2B5A - 2B5D (0x4 bytes), align: 1
  Segment part 3.             Intra module refs:   Segment part 23
                                                   Segment part 29
                                                   hci_init
           ENTRY                   ADDRESS         REF BY
           =====                   =======         ======
           hci_mutex               2B5A            BT_hci_disconnect (hci_link_control_api)
                                                   Segment part 11 (hci_events)
                                                   Segment part 16 (hci_sm)
                                                   Segment part 18 (hci_sm)
                                                   Segment part 19 (hci_events)
                                                   Segment part 22 (hci_api)
                                                   Segment part 23 (hci_api)
                                                   hci_command_tx_bh (hci_command_queue)
                                                   hci_common_api_bh (hci_command_queue)
                                                   hci_connection_complete_event (hci_connect)
                                                   hci_connection_request_event (hci_connect)
                                                   hci_disconnection_complete_event (hci_disconnect)
                                                   hci_transport_read_data (hci_events)
    -------------------------------------------------------------------------
DATA20_Z
  Relative segment, address: 3FBF - 3FC4 (0x6 bytes), align: 0
  Segment part 4.             Intra module refs:   hci_bt_init
                                                   hci_handle_init_sequence
           ENTRY                   ADDRESS         REF BY
           =====                   =======         ======
           hci_local_bd_addr       3FBF            hci_command_complete_event (hci_events)
    -------------------------------------------------------------------------
DATA20_Z
  Relative segment, address: 3FC5 - 3FC5 (0x1 bytes), align: 0
  Segment part 5.             Intra module refs:   hci_bt_init
           ENTRY                   ADDRESS         REF BY
           =====                   =======         ======
           hci_num_hci_command_packets
                                   3FC5            Segment part 25 (hci_events)
                                                   hci_command_tx_bh (hci_command_queue)
    -------------------------------------------------------------------------
DATA20_Z
  Relative segment, address: 2B5E - 2B5F (0x2 bytes), align: 1
  Segment part 6.             Intra module refs:   hci_bt_init
           ENTRY                   ADDRESS         REF BY
           =====                   =======         ======
           hci_max_no_acl_tx_packets
                                   2B5E            hci_command_complete_event (hci_events)
    -------------------------------------------------------------------------
DATA20_Z
  Relative segment, address: 2B60 - 2B61 (0x2 bytes), align: 1
  Segment part 7.             Intra module refs:   hci_bt_init
           ENTRY                   ADDRESS         REF BY
           =====                   =======         ======
           hci_max_acl_tx_pkt_size
                                   2B60            hci_command_complete_event (hci_events)
    -------------------------------------------------------------------------
DATA20_Z
  Relative segment, address: 3FC6 - 3FC6 (0x1 bytes), align: 0
  Segment part 8.             Intra module refs:   hci_bt_init
           ENTRY                   ADDRESS         REF BY
           =====                   =======         ======
           hci_flow_control        3FC6 
    -------------------------------------------------------------------------
DATA20_Z
  Relative segment, address: 2B62 - 2B65 (0x4 bytes), align: 1
  Segment part 9.             Intra module refs:   hci_handle_init_sequence
                                                   hci_init
                                                   hci_set_local_name
           ENTRY                   ADDRESS         REF BY
           =====                   =======         ======
           hci_local_name          2B62 
    -------------------------------------------------------------------------
DATA20_Z
  Relative segment, address: 2B66 - 2B8D (0x28 bytes), align: 1
  Segment part 10.            Intra module refs:   hci_bt_init
           ENTRY                   ADDRESS         REF BY
           =====                   =======         ======
           hci_remote_devices      2B66            hci_alloc_remote_device (hci_utils)
                                                   hci_find_device_by_handle (hci_utils)
                                                   hci_find_remote_device (hci_utils)
                                                   hci_handle_connection_command_status (hci_connect)
                                                   hci_handle_hardware_error (hci_events)
    -------------------------------------------------------------------------
DATA20_Z
  Relative segment, address: 3FC7 - 3FD6 (0x10 bytes), align: 0
  Segment part 11.            Intra module refs:   hci_bt_init
           ENTRY                   ADDRESS         REF BY
           =====                   =======         ======
           dev_attr_list           3FC7            hci_get_device_attr (hci_dev_attr)
    -------------------------------------------------------------------------
DATA20_Z
  Relative segment, address: 3FD7 - 3FD7 (0x1 bytes), align: 0
  Segment part 12.            Intra module refs:   hci_bt_init
           ENTRY                   ADDRESS         REF BY
           =====                   =======         ======
           hci_device_role         3FD7            hci_sm_connection_request_reply (hci_sm)
    -------------------------------------------------------------------------
DATA20_Z
  Relative segment, address: 2B8E - 2BDD (0x50 bytes), align: 1
  Segment part 13.            Intra module refs:   hci_bt_init
           ENTRY                   ADDRESS         REF BY
           =====                   =======         ======
           hci_command_queue       2B8E            hci_command_tx_bh (hci_command_queue)
                                                   hci_common_api_bh (hci_command_queue)
    -------------------------------------------------------------------------
DATA20_Z
  Relative segment, address: 2BDE - 2BDF (0x2 bytes), align: 1
  Segment part 14.            Intra module refs:   Segment part 30
           ENTRY                   ADDRESS         REF BY
           =====                   =======         ======
           hci_command_queue_start
                                   2BDE            hci_command_tx_bh (hci_command_queue)
    -------------------------------------------------------------------------
DATA20_Z
  Relative segment, address: 2BE0 - 2BE1 (0x2 bytes), align: 1
  Segment part 15.            Intra module refs:   Segment part 30
           ENTRY                   ADDRESS         REF BY
           =====                   =======         ======
           hci_command_queue_end   2BE0            hci_common_api_bh (hci_command_queue)
    -------------------------------------------------------------------------
DATA20_Z
  Relative segment, address: 3FD8 - 3FD8 (0x1 bytes), align: 0
  Segment part 16.            Intra module refs:   Segment part 30
           ENTRY                   ADDRESS         REF BY
           =====                   =======         ======
           hci_schedule_command_tx
                                   3FD8            hci_command_tx_bh (hci_command_queue)
                                                   hci_trigger_command_tx (hci_command_queue)
    -------------------------------------------------------------------------
DATA20_Z
  Relative segment, address: 2BE2 - 2BE5 (0x4 bytes), align: 1
  Segment part 17.            Intra module refs:   hci_bt_init
                                                   hci_init
           ENTRY                   ADDRESS         REF BY
           =====                   =======         ======
           hci_init_command_mask   2BE2 
    -------------------------------------------------------------------------
DATA20_Z
  Relative segment, address: 3FD9 - 3FD9 (0x1 bytes), align: 0
  Segment part 18.            Intra module refs:   hci_bt_init
           ENTRY                   ADDRESS         REF BY
           =====                   =======         ======
           hci_call_event_ind_callback
                                   3FD9            Segment part 10 (hci_events)
                                                   hci_connection_request_event (hci_connect)
                                                   hci_transport_read_data (hci_events)
    -------------------------------------------------------------------------
DATA20_Z
  Relative segment, address: 3FDA - 3FDA (0x1 bytes), align: 0
  Segment part 19.            Intra module refs:   Segment part 29
                                                   hci_handle_init_sequence
           ENTRY                   ADDRESS         REF BY
           =====                   =======         ======
           hci_bt_init_complete_call_cb
                                   3FDA            hci_command_complete_event (hci_events)
                                                   hci_transport_read_data (hci_events)
    -------------------------------------------------------------------------
DATA20_Z
  Relative segment, address: 2BE6 - 2BE9 (0x4 bytes), align: 1
  Segment part 20.            Intra module refs:   hci_init
           ENTRY                   ADDRESS         REF BY
           =====                   =======         ======
           hci_event_ind_cb        2BE6            BT_hci_register_event_indication_callback (hci_api)
                                                   hci_connection_request_event (hci_connect)
                                                   hci_transport_read_data (hci_events)
    -------------------------------------------------------------------------
<CODE> 3 (was CODE)
  Relative segment, address: 000146B8 - 00014703 (0x4c bytes), align: 1
  Segment part 32.
           ENTRY                   ADDRESS         REF BY
           =====                   =======         ======
           hci_set_local_name      000146B8        BT_bluetooth_on (BT_common)
               calls direct
               CSTACK = 00000000 ( 0000000C )
    -------------------------------------------------------------------------
<CODE> 3 (was CODE)
  Relative segment, address: 00015876 - 0001589D (0x28 bytes), align: 1
  Segment part 31.
           ENTRY                   ADDRESS         REF BY
           =====                   =======         ======
           hci_init                00015876        BT_ethermind_init (BT_common)
               calls direct
               CSTACK = 00000000 ( 00000004 )
    -------------------------------------------------------------------------
<CODE> 3 (was CODE)
  Relative segment, address: 000167F2 - 000167FD (0xc bytes), align: 1
  Segment part 23.            Intra module refs:   hci_bt_init
    -------------------------------------------------------------------------
<CODE> 3 (was CODE)
  Relative segment, address: 00010E90 - 00010F4F (0xc0 bytes), align: 1
  Segment part 28.
           ENTRY                   ADDRESS         REF BY
           =====                   =======         ======
           hci_bt_init             00010E90        BT_bluetooth_on (BT_common)
               calls direct
               CSTACK = 00000000 ( 0000000C )
    -------------------------------------------------------------------------
<CODE> 3 (was CODE)
  Relative segment, address: 0001660C - 00016619 (0xe bytes), align: 1
  Segment part 29.            Intra module refs:   hci_bt_init
    -------------------------------------------------------------------------
<CODE> 3 (was CODE)
  Relative segment, address: 00016122 - 00016135 (0x14 bytes), align: 1
  Segment part 30.            Intra module refs:   hci_bt_init
    -------------------------------------------------------------------------
<CODE> 3 (was CODE)
  Relative segment, address: 00010000 - 000100DB (0xdc bytes), align: 1
  Segment part 24.
           ENTRY                   ADDRESS         REF BY
           =====                   =======         ======
           hci_handle_init_sequence
                                   00010000        hci_command_complete_event (hci_events)
               calls direct
               CSTACK = 00000000 ( 0000000C )
    -------------------------------------------------------------------------
<CODE> 3 (was CODE)
  Relative segment, address: 000165FE - 0001660B (0xe bytes), align: 1
  Segment part 25.            Intra module refs:   hci_handle_init_sequence
    -------------------------------------------------------------------------
<CODE> 3 (was CODE)
  Relative segment, address: 000165EE - 000165FD (0x10 bytes), align: 1
  Segment part 26.            Intra module refs:   hci_handle_init_sequence
    -------------------------------------------------------------------------
<CODE> 3 (was CODE)
  Relative segment, address: 000165CE - 000165DD (0x10 bytes), align: 1
  Segment part 27.            Intra module refs:   Segment part 26
                                                   hci_handle_init_sequence
    -------------------------------------------------------------------------
DATA16_C
  Relative segment, address: 5FF6 - 5FFD (0x8 bytes), align: 0
  Segment part 2.             Intra module refs:   hci_bt_init

    -------------------------------------------------------------------------
  LIBRARY MODULE, NAME : hci_link_control_api

  SEGMENTS IN THE MODULE
  ======================
<CODE> 1 (was CODE)
  Relative segment, address: D7E8 - D855 (0x6e bytes), align: 1
  Segment part 13.
           ENTRY                   ADDRESS         REF BY
           =====                   =======         ======
           BT_hci_disconnect       D7E8            ?Subroutine3 (appl_spp)
                                                   appl_spp_connect (appl_spp)
                                                   appl_spp_notify_cb (appl_spp)
                                                   sdk_hci_event_indication_callback (appl_cb)
               calls direct
               CSTACK = 00000000 ( 0000002C )
    -------------------------------------------------------------------------
<CODE> 1 (was CODE)
  Relative segment, address: D856 - D85B (0x6 bytes), align: 1
  Segment part 14.            Intra module refs:   BT_hci_disconnect
                                                   BT_hci_inquiry
    -------------------------------------------------------------------------
<CODE> 1 (was CODE)
  Relative segment, address: D85C - D8E3 (0x88 bytes), align: 1
  Segment part 15.
           ENTRY                   ADDRESS         REF BY
           =====                   =======         ======
           BT_hci_create_connection
                                   D85C            ?Subroutine5 (appl_cb)
               calls direct
               CSTACK = 00000000 ( 00000030 )
    -------------------------------------------------------------------------
<CODE> 1 (was CODE)
  Relative segment, address: D8E4 - D8E9 (0x6 bytes), align: 1
  Segment part 17.            Intra module refs:   BT_hci_inquiry
    -------------------------------------------------------------------------
<CODE> 1 (was CODE)
  Relative segment, address: D8EA - D8F5 (0xc bytes), align: 1
  Segment part 18.            Intra module refs:   BT_hci_disconnect
                                                   BT_hci_remote_name_request
                                                   Segment part 17
    -------------------------------------------------------------------------
<CODE> 1 (was CODE)
  Relative segment, address: D8F6 - D945 (0x50 bytes), align: 1
  Segment part 19.
           ENTRY                   ADDRESS         REF BY
           =====                   =======         ======
           BT_hci_inquiry          D8F6            sdk_bluetooth_menu_handler (appl_sdk)
                                                   sdk_hci_event_indication_callback (appl_cb)
               calls direct
               CSTACK = 00000000 ( 0000002C )
    -------------------------------------------------------------------------
<CODE> 3 (was CODE)
  Relative segment, address: 000145CA - 00014619 (0x50 bytes), align: 1
  Segment part 11.
           ENTRY                   ADDRESS         REF BY
           =====                   =======         ======
           BT_hci_remote_name_request
                                   000145CA        appl_acl_connection_complete_event (appl_sdk)
                                                   sdk_hci_event_indication_callback (appl_cb)
               calls direct
               CSTACK = 00000000 ( 0000002A )

    -------------------------------------------------------------------------
  LIBRARY MODULE, NAME : hci_link_policy_api

  SEGMENTS IN THE MODULE
  ======================
<CODE> 3 (was CODE)
  Relative segment, address: 000128CA - 000128CF (0x6 bytes), align: 1
  Segment part 3.             Intra module refs:   BT_hci_sniff_mode
    -------------------------------------------------------------------------
<CODE> 3 (was CODE)
  Relative segment, address: 000128D0 - 00012933 (0x64 bytes), align: 1
  Segment part 15.
           ENTRY                   ADDRESS         REF BY
           =====                   =======         ======
           BT_hci_sniff_mode       000128D0        appl_spp_notify_cb (appl_spp)
               calls direct
               CSTACK = 00000000 ( 0000002C )
    -------------------------------------------------------------------------
<CODE> 3 (was CODE)
  Relative segment, address: 00012934 - 0001293D (0xa bytes), align: 1
  Segment part 16.            Intra module refs:   BT_hci_sniff_mode
    -------------------------------------------------------------------------
<CODE> 3 (was CODE)
  Relative segment, address: 0001293E - 00012945 (0x8 bytes), align: 1
  Segment part 17.            Intra module refs:   Segment part 16
                                                   Segment part 20
    -------------------------------------------------------------------------
<CODE> 3 (was CODE)
  Relative segment, address: 00012946 - 00012951 (0xc bytes), align: 1
  Segment part 20.            Intra module refs:   Segment part 16

    -------------------------------------------------------------------------
  LIBRARY MODULE, NAME : hci_sm

  SEGMENTS IN THE MODULE
  ======================
<CODE> 1 (was CODE)
  Relative segment, address: A57E - A5BF (0x42 bytes), align: 1
  Segment part 2.
           ENTRY                   ADDRESS         REF BY
           =====                   =======         ======
           hci_sm_remote_oob_data_request_reply
                                   A57E            sm_remote_oob_data_request (sm_interface)
               calls direct
               CSTACK = 00000000 ( 00000034 )
    -------------------------------------------------------------------------
<CODE> 1 (was CODE)
  Relative segment, address: A5C0 - A5C7 (0x8 bytes), align: 1
  Segment part 3.             Intra module refs:   hci_sm_link_key_request_reply
                                                   hci_sm_remote_oob_data_request_reply
    -------------------------------------------------------------------------
<CODE> 1 (was CODE)
  Relative segment, address: A5C8 - A5CF (0x8 bytes), align: 1
  Segment part 5.             Intra module refs:   hci_sm_user_confirmation_request_reply
    -------------------------------------------------------------------------
<CODE> 1 (was CODE)
  Relative segment, address: A5D0 - A603 (0x34 bytes), align: 1
  Segment part 6.
           ENTRY                   ADDRESS         REF BY
           =====                   =======         ======
           hci_sm_user_confirmation_request_reply
                                   A5D0            sdk_sm_ui_notify_cb (appl_cb)
                                                   sm_user_conf_request (sm_interface)
               calls direct
               CSTACK = 00000000 ( 0000002C )
    -------------------------------------------------------------------------
<CODE> 1 (was CODE)
  Relative segment, address: A604 - A631 (0x2e bytes), align: 1
  Segment part 7.
           ENTRY                   ADDRESS         REF BY
           =====                   =======         ======
           hci_sm_io_capability_request_negative_reply
                                   A604            sm_io_capability_event (sm_interface)
               calls direct
               CSTACK = 00000000 ( 0000002A )
    -------------------------------------------------------------------------
<CODE> 1 (was CODE)
  Relative segment, address: A632 - A639 (0x8 bytes), align: 1
  Segment part 8.             Intra module refs:   hci_sm_io_capability_request_negative_reply
                                                   hci_sm_io_capability_request_reply
                                                   hci_sm_link_key_request_reply
                                                   hci_sm_pin_code_request_reply
                                                   hci_sm_remote_oob_data_request_reply
                                                   hci_sm_user_confirmation_request_reply
    -------------------------------------------------------------------------
<CODE> 1 (was CODE)
  Relative segment, address: A63A - A681 (0x48 bytes), align: 1
  Segment part 9.
           ENTRY                   ADDRESS         REF BY
           =====                   =======         ======
           hci_sm_io_capability_request_reply
                                   A63A            sm_io_capability_event (sm_interface)
               calls direct
               CSTACK = 00000000 ( 0000002E )
    -------------------------------------------------------------------------
<CODE> 1 (was CODE)
  Relative segment, address: A682 - A6B5 (0x34 bytes), align: 1
  Segment part 11.
           ENTRY                   ADDRESS         REF BY
           =====                   =======         ======
           hci_sm_auth_encr_change_link_key
                                   A682            sm_context_state_machine (sm_core)
               calls direct
               CSTACK = 00000000 ( 00000028 )
    -------------------------------------------------------------------------
<CODE> 1 (was CODE)
  Relative segment, address: A6B6 - A715 (0x60 bytes), align: 1
  Segment part 12.
           ENTRY                   ADDRESS         REF BY
           =====                   =======         ======
           hci_sm_pin_code_request_reply
                                   A6B6            sdk_sm_ui_notify_cb (appl_cb)
                                                   sm_link_key_pin_code_request (sm_interface)
               calls direct
               CSTACK = 00000000 ( 0000002E )
    -------------------------------------------------------------------------
<CODE> 1 (was CODE)
  Relative segment, address: A716 - A725 (0x10 bytes), align: 1
  Segment part 13.            Intra module refs:   hci_sm_io_capability_request_negative_reply
                                                   hci_sm_pin_code_request_reply
    -------------------------------------------------------------------------
<CODE> 1 (was CODE)
  Relative segment, address: A726 - A775 (0x50 bytes), align: 1
  Segment part 14.
           ENTRY                   ADDRESS         REF BY
           =====                   =======         ======
           hci_sm_link_key_request_reply
                                   A726            sdk_sm_ui_notify_cb (appl_cb)
                                                   sm_link_key_pin_code_request (sm_interface)
               calls direct
               CSTACK = 00000000 ( 00000034 )
    -------------------------------------------------------------------------
<CODE> 1 (was CODE)
  Relative segment, address: A776 - A777 (0x2 bytes), align: 1
  Segment part 15.            Intra module refs:   hci_sm_io_capability_request_negative_reply
                                                   hci_sm_io_capability_request_reply
    -------------------------------------------------------------------------
<CODE> 1 (was CODE)
  Relative segment, address: A778 - A783 (0xc bytes), align: 1
  Segment part 16.            Intra module refs:   Segment part 15
                                                   hci_sm_connection_request_reply
                                                   hci_sm_link_key_request_reply
                                                   hci_sm_pin_code_request_reply
                                                   hci_sm_remote_oob_data_request_reply
                                                   hci_sm_user_confirmation_request_reply
    -------------------------------------------------------------------------
<CODE> 1 (was CODE)
  Relative segment, address: A784 - A7CD (0x4a bytes), align: 1
  Segment part 17.
           ENTRY                   ADDRESS         REF BY
           =====                   =======         ======
           hci_sm_connection_request_reply
                                   A784            sm_acl_connection_request (sm_interface)
                                                   sm_ui_notification_request_reply (sm_ui)
               calls direct
               CSTACK = 00000000 ( 00000014 )
    -------------------------------------------------------------------------
<CODE> 1 (was CODE)
  Relative segment, address: A7CE - A7E5 (0x18 bytes), align: 1
  Segment part 18.            Intra module refs:   Segment part 8
                                                   hci_sm_connection_request_reply

    -------------------------------------------------------------------------
  LIBRARY MODULE, NAME : hci_utils

  SEGMENTS IN THE MODULE
  ======================
<CODE> 3 (was CODE)
  Relative segment, address: 0001360E - 0001367F (0x72 bytes), align: 1
  Segment part 6.
           ENTRY                   ADDRESS         REF BY
           =====                   =======         ======
           hci_alloc_remote_device
                                   0001360E        hci_command_tx_bh (hci_command_queue)
                                                   hci_connection_complete_event (hci_connect)
                                                   hci_connection_request_event (hci_connect)
               calls direct
               CSTACK = 00000000 ( 00000008 )
    -------------------------------------------------------------------------
<CODE> 3 (was CODE)
  Relative segment, address: 00016ABA - 00016AC3 (0xa bytes), align: 1
  Segment part 7.             Intra module refs:   hci_alloc_remote_device
                                                   hci_find_remote_device
    -------------------------------------------------------------------------
<CODE> 3 (was CODE)
  Relative segment, address: 00015302 - 00015339 (0x38 bytes), align: 1
  Segment part 5.
           ENTRY                   ADDRESS         REF BY
           =====                   =======         ======
           hci_free_remote_device
                                   00015302        hci_bt_init (hci_init)
                                                   hci_command_tx_bh (hci_command_queue)
                                                   hci_connection_complete_event (hci_connect)
                                                   hci_disconnection_complete_event (hci_disconnect)
                                                   hci_handle_connection_command_status (hci_connect)
                                                   hci_handle_hardware_error (hci_events)
               calls direct
               CSTACK = 00000000 ( 00000008 )
    -------------------------------------------------------------------------
<CODE> 3 (was CODE)
  Relative segment, address: 00014880 - 000148CB (0x4c bytes), align: 1
  Segment part 4.             Intra module refs:   hci_alloc_remote_device
           ENTRY                   ADDRESS         REF BY
           =====                   =======         ======
           hci_find_remote_device
                                   00014880        BT_hci_get_acl_connection_handle (hci_api)
                                                   Segment part 3 (hci_command_queue)
                                                   hci_connection_complete_event (hci_connect)
                                                   hci_connection_request_event (hci_connect)
                                                   hci_sco_connection (hci_connect)
               calls direct
               CSTACK = 00000000 ( 00000014 )
    -------------------------------------------------------------------------
<CODE> 3 (was CODE)
  Relative segment, address: 00015DCC - 00015DE7 (0x1c bytes), align: 1
  Segment part 3.
           ENTRY                   ADDRESS         REF BY
           =====                   =======         ======
           hci_get_ce              00015DCC        Segment part 5 (hci_command_queue)
                                                   hci_command_tx_bh (hci_command_queue)
                                                   hci_connection_request_event (hci_connect)
                                                   hci_sco_connection (hci_connect)
               CSTACK = 00000000 ( 00000004 )
    -------------------------------------------------------------------------
<CODE> 3 (was CODE)
  Relative segment, address: 00013BEC - 00013C51 (0x66 bytes), align: 1
  Segment part 2.
           ENTRY                   ADDRESS         REF BY
           =====                   =======         ======
           hci_find_device_by_handle
                                   00013BEC        BT_hci_disconnect (hci_link_control_api)
                                                   hci_command_tx_bh (hci_command_queue)
                                                   hci_disconnection_complete_event (hci_disconnect)
                                                   hci_mode_change_event (hci_events)
               CSTACK = 00000000 ( 0000001C )

    -------------------------------------------------------------------------
  LIBRARY MODULE, NAME : l2cap_command

  SEGMENTS IN THE MODULE
  ======================
<CODE> 1 (was CODE)
  Relative segment, address: EC52 - ED65 (0x114 bytes), align: 1
  Segment part 8.
           ENTRY                   ADDRESS         REF BY
           =====                   =======         ======
           l2cap_create_command    EC52            Segment part 9 (l2cap_data_recv)
                                                   l2ca_disconnect_req (l2cap_disconnect)
                                                   l2cap_create_config_req (l2cap_config)
                                                   l2cap_mtu_check (l2cap_data_recv)
                                                   l2cap_send_connect_req (l2cap_connect)
               calls direct
               CSTACK = 00000000 ( 00000024 )
    -------------------------------------------------------------------------
<CODE> 3 (was CODE)
  Relative segment, address: 00016AB0 - 00016AB9 (0xa bytes), align: 1
  Segment part 5.             Intra module refs:   l2cap_command_write
                                                   l2cap_delete_command
                                                   l2cap_update_command
    -------------------------------------------------------------------------
<CODE> 3 (was CODE)
  Relative segment, address: 0001533A - 00015371 (0x38 bytes), align: 1
  Segment part 7.
           ENTRY                   ADDRESS         REF BY
           =====                   =======         ======
           l2cap_update_command    0001533A        Segment part 8 (l2cap_ping)
                                                   l2ca_config_req (l2cap_config)
                                                   l2cap_config_req (l2cap_config)
                                                   l2cap_connect_req (l2cap_connect)
                                                   l2cap_disconnect_req (l2cap_disconnect)
                                                   l2cap_send_command_rej (l2cap_signal)
                                                   l2cap_send_config_rsp (l2cap_config)
                                                   l2cap_send_connect_rsp (l2cap_connect)
               CSTACK = 00000000 ( 00000014 )
    -------------------------------------------------------------------------
<CODE> 3 (was CODE)
  Relative segment, address: 00014A78 - 00014ABD (0x46 bytes), align: 1
  Segment part 6.
           ENTRY                   ADDRESS         REF BY
           =====                   =======         ======
           l2cap_search_command    00014A78        l2cap_command_timeout_handler (l2cap_signal)
                                                   l2cap_lp_data_read (l2cap_data_recv)
               CSTACK = 00000000 ( 00000014 )
    -------------------------------------------------------------------------
<CODE> 3 (was CODE)
  Relative segment, address: 00014C14 - 00014C57 (0x44 bytes), align: 1
  Segment part 2.             Intra module refs:   l2cap_command_write
           ENTRY                   ADDRESS         REF BY
           =====                   =======         ======
           l2cap_delete_command    00014C14        Segment part 5 (l2cap_connect)
                                                   Segment part 6 (l2cap_signal)
                                                   l2cap_command_rej (l2cap_signal)
                                                   l2cap_config_req (l2cap_config)
                                                   l2cap_config_rsp (l2cap_config)
                                                   l2cap_config_timeout_handler (l2cap_config)
                                                   l2cap_data_transmitter_bh (l2cap_lmp)
                                                   l2cap_delete_ce (l2cap_utils)
                                                   l2cap_disconnect_req (l2cap_disconnect)
                                                   l2cap_disconnect_rsp (l2cap_disconnect)
                                                   l2cap_info_rsp (l2cap_ping)
                                                   l2cap_lp_disconnect_ind (l2cap_disconnect)
               calls direct
               CSTACK = 00000000 ( 00000014 )
    -------------------------------------------------------------------------
<CODE> 3 (was CODE)
  Relative segment, address: 000168E2 - 000168ED (0xc bytes), align: 1
  Segment part 4.             Intra module refs:   l2cap_command_write
                                                   l2cap_delete_command
    -------------------------------------------------------------------------
<CODE> 3 (was CODE)
  Relative segment, address: 00012728 - 000127B5 (0x8e bytes), align: 1
  Segment part 3.
           ENTRY                   ADDRESS         REF BY
           =====                   =======         ======
           l2cap_command_write     00012728        l2ca_config_req (l2cap_config)
                                                   l2ca_disconnect_req (l2cap_disconnect)
                                                   l2cap_command_timeout_handler (l2cap_signal)
                                                   l2cap_config_req (l2cap_config)
                                                   l2cap_config_rsp (l2cap_config)
                                                   l2cap_disconnect_req (l2cap_disconnect)
                                                   l2cap_echo_req (l2cap_ping)
                                                   l2cap_info_req (l2cap_ping)
                                                   l2cap_send_command_rej (l2cap_signal)
                                                   l2cap_send_config_rsp (l2cap_config)
                                                   l2cap_send_connect_req (l2cap_connect)
                                                   l2cap_send_connect_rsp (l2cap_connect)
               calls direct
               CSTACK = 00000000 ( 0000001C )

    -------------------------------------------------------------------------
  LIBRARY MODULE, NAME : l2cap_config

  SEGMENTS IN THE MODULE
  ======================
<CODE> 1 (was CODE)
  Relative segment, address: 5FFE - 6147 (0x14a bytes), align: 1
  Segment part 17.
           ENTRY                   ADDRESS         REF BY
           =====                   =======         ======
           l2ca_config_rsp         5FFE            rfcomm_l2ca_config_ind (rfcomm_l2cap)
                                                   sdp_l2cap_config_ind (sdp_l2cap)
               calls direct
               CSTACK = 00000000 ( 00000030 )
    -------------------------------------------------------------------------
<CODE> 1 (was CODE)
  Relative segment, address: 6148 - 614D (0x6 bytes), align: 1
  Segment part 18.            Intra module refs:   l2ca_config_req
                                                   l2ca_config_rsp
    -------------------------------------------------------------------------
<CODE> 1 (was CODE)
  Relative segment, address: 614E - 615F (0x12 bytes), align: 1
  Segment part 19.            Intra module refs:   l2ca_config_rsp
                                                   l2cap_move_to_open
    -------------------------------------------------------------------------
<CODE> 1 (was CODE)
  Relative segment, address: 6160 - 637D (0x21e bytes), align: 1
  Segment part 20.
           ENTRY                   ADDRESS         REF BY
           =====                   =======         ======
           l2cap_config_rsp        6160            l2cap_sig_handler (l2cap_init)
               calls direct and indirect
               CSTACK = 00000000 ( 0000004A )
    -------------------------------------------------------------------------
<CODE> 1 (was CODE)
  Relative segment, address: 637E - 6385 (0x8 bytes), align: 1
  Segment part 21.            Intra module refs:   Segment part 13
                                                   l2cap_config_req
                                                   l2cap_config_rsp
    -------------------------------------------------------------------------
<CODE> 1 (was CODE)
  Relative segment, address: 6386 - 638F (0xa bytes), align: 1
  Segment part 22.            Intra module refs:   l2cap_config_rsp
    -------------------------------------------------------------------------
<CODE> 1 (was CODE)
  Relative segment, address: 6390 - 6397 (0x8 bytes), align: 1
  Segment part 23.            Intra module refs:   l2ca_config_rsp
                                                   l2cap_config_req
                                                   l2cap_config_rsp
                                                   l2cap_config_timeout_handler
    -------------------------------------------------------------------------
<CODE> 1 (was CODE)
  Relative segment, address: 6398 - 63A9 (0x12 bytes), align: 1
  Segment part 24.            Intra module refs:   l2cap_config_rsp
                                                   l2cap_move_to_open
    -------------------------------------------------------------------------
<CODE> 1 (was CODE)
  Relative segment, address: 63AA - 63B5 (0xc bytes), align: 1
  Segment part 25.            Intra module refs:   Segment part 19
                                                   Segment part 24
                                                   Segment part 26
    -------------------------------------------------------------------------
<CODE> 1 (was CODE)
  Relative segment, address: 63B6 - 63C7 (0x12 bytes), align: 1
  Segment part 26.            Intra module refs:   l2cap_config_rsp
                                                   l2cap_move_to_open
    -------------------------------------------------------------------------
<CODE> 1 (was CODE)
  Relative segment, address: 63C8 - 65F7 (0x230 bytes), align: 1
  Segment part 27.
           ENTRY                   ADDRESS         REF BY
           =====                   =======         ======
           l2cap_config_req        63C8            l2cap_sig_handler (l2cap_init)
               calls direct and indirect
               CSTACK = 00000000 ( 00000050 )
    -------------------------------------------------------------------------
<CODE> 1 (was CODE)
  Relative segment, address: 65F8 - 65FD (0x6 bytes), align: 1
  Segment part 28.            Intra module refs:   l2cap_config_rsp
    -------------------------------------------------------------------------
<CODE> 1 (was CODE)
  Relative segment, address: 65FE - 6605 (0x8 bytes), align: 1
  Segment part 29.            Intra module refs:   Segment part 28
                                                   l2ca_config_req
                                                   l2cap_config_req
                                                   l2cap_config_rsp
    -------------------------------------------------------------------------
<CODE> 1 (was CODE)
  Relative segment, address: 6606 - 6617 (0x12 bytes), align: 1
  Segment part 30.            Intra module refs:   l2ca_config_req
                                                   l2cap_config_req
                                                   l2cap_config_rsp
    -------------------------------------------------------------------------
<CODE> 1 (was CODE)
  Relative segment, address: 6618 - 6623 (0xc bytes), align: 1
  Segment part 31.            Intra module refs:   l2cap_config_req
                                                   l2cap_config_rsp
    -------------------------------------------------------------------------
<CODE> 1 (was CODE)
  Relative segment, address: 6624 - 6629 (0x6 bytes), align: 1
  Segment part 32.            Intra module refs:   Segment part 31
                                                   Segment part 34
                                                   l2cap_config_rsp
    -------------------------------------------------------------------------
<CODE> 1 (was CODE)
  Relative segment, address: 662A - 6631 (0x8 bytes), align: 1
  Segment part 33.            Intra module refs:   l2ca_config_req
                                                   l2ca_config_rsp
    -------------------------------------------------------------------------
<CODE> 1 (was CODE)
  Relative segment, address: 6632 - 6637 (0x6 bytes), align: 1
  Segment part 34.            Intra module refs:   Segment part 33
                                                   l2cap_config_req
                                                   l2cap_config_rsp
                                                   l2cap_create_config_req
                                                   l2cap_send_config_rsp
    -------------------------------------------------------------------------
<CODE> 1 (was CODE)
  Relative segment, address: 6638 - 6641 (0xa bytes), align: 1
  Segment part 35.            Intra module refs:   l2cap_config_req
                                                   l2cap_config_rsp
    -------------------------------------------------------------------------
<CODE> 1 (was CODE)
  Relative segment, address: 6642 - 664F (0xe bytes), align: 1
  Segment part 36.            Intra module refs:   Segment part 25
                                                   Segment part 35
    -------------------------------------------------------------------------
<CODE> 1 (was CODE)
  Relative segment, address: 6650 - 67D7 (0x188 bytes), align: 1
  Segment part 37.
           ENTRY                   ADDRESS         REF BY
           =====                   =======         ======
           l2ca_config_req         6650            rfcomm_l2ca_config_ind (rfcomm_l2cap)
                                                   rfcomm_l2ca_connect_cnf (rfcomm_l2cap)
                                                   sdp_l2cap_config_ind (sdp_l2cap)
                                                   sdp_l2cap_connect_cfm (sdp_l2cap)
               calls direct
               CSTACK = 00000000 ( 0000002A )
    -------------------------------------------------------------------------
<CODE> 3 (was CODE)
  Relative segment, address: 00016A92 - 00016A9B (0xa bytes), align: 1
  Segment part 38.            Intra module refs:   l2ca_config_req
                                                   l2cap_config_rsp
    -------------------------------------------------------------------------
<CODE> 3 (was CODE)
  Relative segment, address: 0001661A - 00016627 (0xe bytes), align: 1
  Segment part 39.            Intra module refs:   l2ca_config_req
                                                   l2ca_config_rsp
    -------------------------------------------------------------------------
<CODE> 3 (was CODE)
  Relative segment, address: 00016628 - 00016635 (0xe bytes), align: 1
  Segment part 40.            Intra module refs:   l2ca_config_req
                                                   l2cap_config_req
    -------------------------------------------------------------------------
<CODE> 3 (was CODE)
  Relative segment, address: 000169DE - 000169E7 (0xa bytes), align: 1
  Segment part 41.            Intra module refs:   l2ca_config_req
    -------------------------------------------------------------------------
<CODE> 3 (was CODE)
  Relative segment, address: 0001624C - 0001625D (0x12 bytes), align: 1
  Segment part 42.            Intra module refs:   l2ca_config_req
                                                   l2cap_config_rsp
    -------------------------------------------------------------------------
<CODE> 3 (was CODE)
  Relative segment, address: 00016ADE - 00016AE5 (0x8 bytes), align: 1
  Segment part 12.            Intra module refs:   Segment part 23
                                                   l2cap_config_timeout_handler
    -------------------------------------------------------------------------
<CODE> 3 (was CODE)
  Relative segment, address: 00016AE6 - 00016AED (0x8 bytes), align: 1
  Segment part 13.            Intra module refs:   l2ca_config_rsp
                                                   l2cap_config_timeout_handler
    -------------------------------------------------------------------------
<CODE> 3 (was CODE)
  Relative segment, address: 00012EF4 - 00012F71 (0x7e bytes), align: 1
  Segment part 16.            Intra module refs:   l2ca_config_rsp
                                                   l2cap_config_req
           ENTRY                   ADDRESS         REF BY
           =====                   =======         ======
           l2cap_send_config_rsp   00012EF4 
               calls direct
               CSTACK = 00000000 ( 0000001E )
    -------------------------------------------------------------------------
<CODE> 3 (was CODE)
  Relative segment, address: 000143DC - 0001442F (0x54 bytes), align: 1
  Segment part 15.            Intra module refs:   Segment part 38
           ENTRY                   ADDRESS         REF BY
           =====                   =======         ======
           l2cap_create_config_req
                                   000143DC 
               calls direct
               CSTACK = 00000000 ( 0000001C )
    -------------------------------------------------------------------------
<CODE> 3 (was CODE)
  Relative segment, address: 00015BCC - 00015BEB (0x20 bytes), align: 1
  Segment part 14.            Intra module refs:   l2ca_config_req
                                                   l2cap_config_req
           ENTRY                   ADDRESS         REF BY
           =====                   =======         ======
           l2cap_start_config_timer
                                   00015BCC        l2ca_connect_rsp (l2cap_connect)
                                                   l2cap_connect_rsp (l2cap_connect)
               calls direct
               CSTACK = 00000000 ( 00000006 )
    -------------------------------------------------------------------------
<CODE> 3 (was CODE)
  Relative segment, address: 00012E76 - 00012EF3 (0x7e bytes), align: 1
  Segment part 11.            Intra module refs:   l2cap_start_config_timer
           ENTRY                   ADDRESS         REF BY
           =====                   =======         ======
           l2cap_config_timeout_handler
                                   00012E76 
               calls direct
               CSTACK = 00000000 ( 0000001C )
    -------------------------------------------------------------------------
<CODE> 3 (was CODE)
  Relative segment, address: 00014F28 - 00014F65 (0x3e bytes), align: 1
  Segment part 9.             Intra module refs:   l2ca_config_rsp
                                                   l2cap_config_rsp
           ENTRY                   ADDRESS         REF BY
           =====                   =======         ======
           l2cap_move_to_open      00014F28 
               calls direct
               CSTACK = 00000000 ( 00000008 )
    -------------------------------------------------------------------------
<CODE> 3 (was CODE)
  Relative segment, address: 00011474 - 00011529 (0xb6 bytes), align: 1
  Segment part 7.             Intra module refs:   l2ca_config_req
                                                   l2ca_config_rsp
           ENTRY                   ADDRESS         REF BY
           =====                   =======         ======
           l2cap_encode_flow_spec
                                   00011474 
               CSTACK = 00000000 ( 00000004 )
    -------------------------------------------------------------------------
<CODE> 3 (was CODE)
  Relative segment, address: 00016A2E - 00016A37 (0xa bytes), align: 1
  Segment part 8.             Intra module refs:   l2cap_encode_flow_spec
    -------------------------------------------------------------------------
<CODE> 1 (was CODE)
  Relative segment, address: EA20 - EB39 (0x11a bytes), align: 1
  Segment part 3.             Intra module refs:   l2cap_config_req
                                                   l2cap_config_rsp
           ENTRY                   ADDRESS         REF BY
           =====                   =======         ======
           l2cap_decode_flow_spec
                                   EA20 
               CSTACK = 00000000 ( 0000000C )
    -------------------------------------------------------------------------
<CODE> 3 (was CODE)
  Relative segment, address: 000161AE - 000161B1 (0x4 bytes), align: 1
  Segment part 4.             Intra module refs:   l2cap_decode_flow_spec
    -------------------------------------------------------------------------
<CODE> 3 (was CODE)
  Relative segment, address: 000161B2 - 000161BB (0xa bytes), align: 1
  Segment part 5.             Intra module refs:   Segment part 4
                                                   Segment part 6
    -------------------------------------------------------------------------
<CODE> 3 (was CODE)
  Relative segment, address: 000161BC - 000161C1 (0x6 bytes), align: 1
  Segment part 6.             Intra module refs:   l2cap_decode_flow_spec
    -------------------------------------------------------------------------
<CODE> 3 (was CODE)
  Relative segment, address: 000162EE - 000162FF (0x12 bytes), align: 1
  Segment part 2.
           ENTRY                   ADDRESS         REF BY
           =====                   =======         ======
           l2cap_init_config_option
                                   000162EE        Segment part 14 (rfcomm_l2cap)
                                                   Segment part 26 (sdp_l2cap)
               CSTACK = 00000000 ( 00000004 )

    -------------------------------------------------------------------------
  LIBRARY MODULE, NAME : l2cap_connect

  SEGMENTS IN THE MODULE
  ======================
<CODE> 1 (was CODE)
  Relative segment, address: 67D8 - 68DD (0x106 bytes), align: 1
  Segment part 2.
           ENTRY                   ADDRESS         REF BY
           =====                   =======         ======
           l2cap_lp_connect_ind    67D8            hci_connection_complete_event (hci_connect)
               calls direct
               CSTACK = 00000000 ( 00000026 )
    -------------------------------------------------------------------------
<CODE> 1 (was CODE)
  Relative segment, address: 68DE - 68E3 (0x6 bytes), align: 1
  Segment part 3.             Intra module refs:   l2ca_connect_rsp
                                                   l2cap_lp_connect_ind
    -------------------------------------------------------------------------
<CODE> 1 (was CODE)
  Relative segment, address: 68E4 - 6A9D (0x1ba bytes), align: 1
  Segment part 4.
           ENTRY                   ADDRESS         REF BY
           =====                   =======         ======
           l2cap_connect_rsp       68E4            l2cap_sig_handler (l2cap_init)
               calls direct and indirect
               CSTACK = 00000000 ( 0000003A )
    -------------------------------------------------------------------------
<CODE> 1 (was CODE)
  Relative segment, address: 6A9E - 6AA7 (0xa bytes), align: 1
  Segment part 5.             Intra module refs:   l2cap_connect_rsp
    -------------------------------------------------------------------------
<CODE> 1 (was CODE)
  Relative segment, address: 6AA8 - 6AAF (0x8 bytes), align: 1
  Segment part 6.             Intra module refs:   l2cap_connect_rsp
                                                   l2cap_lp_connect_ind
                                                   l2cap_send_connect_ind
    -------------------------------------------------------------------------
<CODE> 1 (was CODE)
  Relative segment, address: 6AB0 - 6AB3 (0x4 bytes), align: 1
  Segment part 7.             Intra module refs:   l2cap_connect_rsp
                                                   l2cap_lp_connect_ind
                                                   l2cap_send_connect_ind
    -------------------------------------------------------------------------
<CODE> 1 (was CODE)
  Relative segment, address: 6AB4 - 6ABB (0x8 bytes), align: 1
  Segment part 8.             Intra module refs:   Segment part 22
                                                   Segment part 7
    -------------------------------------------------------------------------
<CODE> 1 (was CODE)
  Relative segment, address: 6ABC - 6B3B (0x80 bytes), align: 1
  Segment part 9.             Intra module refs:   Segment part 16
                                                   l2ca_connect_rsp
           ENTRY                   ADDRESS         REF BY
           =====                   =======         ======
           l2cap_send_connect_rsp
                                   6ABC            l2cap_sm_access_request (l2cap_sm)
                                                   l2cap_sm_access_response (l2cap_sm)
               calls direct
               CSTACK = 00000000 ( 00000026 )
    -------------------------------------------------------------------------
<CODE> 1 (was CODE)
  Relative segment, address: 6B3C - 6B3F (0x4 bytes), align: 1
  Segment part 10.            Intra module refs:   l2cap_connect_rsp
                                                   l2cap_send_connect_req
                                                   l2cap_send_connect_rsp
    -------------------------------------------------------------------------
<CODE> 1 (was CODE)
  Relative segment, address: 6B40 - 6B45 (0x6 bytes), align: 1
  Segment part 11.            Intra module refs:   Segment part 10
                                                   Segment part 13
                                                   Segment part 14
    -------------------------------------------------------------------------
<CODE> 1 (was CODE)
  Relative segment, address: 6B46 - 6B9F (0x5a bytes), align: 1
  Segment part 12.
           ENTRY                   ADDRESS         REF BY
           =====                   =======         ======
           l2cap_send_connect_ind
                                   6B46            l2cap_sm_access_request (l2cap_sm)
                                                   l2cap_sm_access_response (l2cap_sm)
               calls direct and indirect
               CSTACK = 00000000 ( 0000001C )
    -------------------------------------------------------------------------
<CODE> 1 (was CODE)
  Relative segment, address: 6BA0 - 6BA5 (0x6 bytes), align: 1
  Segment part 13.            Intra module refs:   l2cap_connect_rsp
                                                   l2cap_send_connect_ind
    -------------------------------------------------------------------------
<CODE> 1 (was CODE)
  Relative segment, address: 6BA6 - 6BAB (0x6 bytes), align: 1
  Segment part 14.            Intra module refs:   l2cap_connect_req
                                                   l2cap_connect_rsp
                                                   l2cap_lp_connect_ind
                                                   l2cap_send_connect_ind
    -------------------------------------------------------------------------
<CODE> 1 (was CODE)
  Relative segment, address: 6BAC - 6CA7 (0xfc bytes), align: 1
  Segment part 15.
           ENTRY                   ADDRESS         REF BY
           =====                   =======         ======
           l2cap_connect_req       6BAC            l2cap_sig_handler (l2cap_init)
               calls direct
               CSTACK = 00000000 ( 00000036 )
    -------------------------------------------------------------------------
<CODE> 1 (was CODE)
  Relative segment, address: 6CA8 - 6CB3 (0xc bytes), align: 1
  Segment part 16.            Intra module refs:   l2cap_connect_req
    -------------------------------------------------------------------------
<CODE> 1 (was CODE)
  Relative segment, address: 6CB4 - 6D73 (0xc0 bytes), align: 1
  Segment part 17.
           ENTRY                   ADDRESS         REF BY
           =====                   =======         ======
           l2ca_connect_rsp        6CB4            rfcomm_l2ca_connect_ind (rfcomm_l2cap)
                                                   sdp_l2cap_connect_ind (sdp_l2cap)
               calls direct
               CSTACK = 00000000 ( 0000002E )
    -------------------------------------------------------------------------
<CODE> 1 (was CODE)
  Relative segment, address: 6D74 - 6DDF (0x6c bytes), align: 1
  Segment part 18.            Intra module refs:   l2cap_connect_req_access_ok
           ENTRY                   ADDRESS         REF BY
           =====                   =======         ======
           l2cap_send_connect_req
                                   6D74 
               calls direct
               CSTACK = 00000000 ( 00000020 )
    -------------------------------------------------------------------------
<CODE> 1 (was CODE)
  Relative segment, address: 6DE0 - 6DE3 (0x4 bytes), align: 1
  Segment part 19.
           ENTRY                   ADDRESS         REF BY
           =====                   =======         ======
           l2cap_connect_req_access_ok
                                   6DE0            l2cap_sm_access_request (l2cap_sm)
                                                   l2cap_sm_access_response (l2cap_sm)
               calls direct
               CSTACK = 00000000 ( 00000004 )
    -------------------------------------------------------------------------
<CODE> 1 (was CODE)
  Relative segment, address: 6DE4 - 6E77 (0x94 bytes), align: 1
  Segment part 20.
           ENTRY                   ADDRESS         REF BY
           =====                   =======         ======
           l2ca_connect_req        6DE4            rfcomm_session_open (rfcomm_bh)
                                                   sdp_request_bh (sdp_bh)
               calls direct
               CSTACK = 00000000 ( 00000024 )
    -------------------------------------------------------------------------
<CODE> 1 (was CODE)
  Relative segment, address: 6E78 - 6E81 (0xa bytes), align: 1
  Segment part 21.            Intra module refs:   l2ca_connect_req
                                                   l2ca_connect_rsp
    -------------------------------------------------------------------------
<CODE> 1 (was CODE)
  Relative segment, address: 6E82 - 6E85 (0x4 bytes), align: 1
  Segment part 22.            Intra module refs:   l2ca_connect_req
                                                   l2ca_connect_rsp

    -------------------------------------------------------------------------
  LIBRARY MODULE, NAME : l2cap_data_recv

  SEGMENTS IN THE MODULE
  ======================
<CODE> 1 (was CODE)
  Relative segment, address: 9898 - 9B51 (0x2ba bytes), align: 1
  Segment part 6.
           ENTRY                   ADDRESS         REF BY
           =====                   =======         ======
           l2cap_lp_data_read      9898            hci_transport_read_data (hci_events)
               calls direct and indirect
               CSTACK = 00000000 ( 00000038 )
    -------------------------------------------------------------------------
<CODE> 3 (was CODE)
  Relative segment, address: 00015E38 - 00015E51 (0x1a bytes), align: 1
  Segment part 7.             Intra module refs:   l2cap_lp_data_read
    -------------------------------------------------------------------------
<CODE> 3 (was CODE)
  Relative segment, address: 00016A10 - 00016A19 (0xa bytes), align: 1
  Segment part 8.             Intra module refs:   l2cap_lp_data_read
    -------------------------------------------------------------------------
<CODE> 3 (was CODE)
  Relative segment, address: 000166DE - 000166EB (0xe bytes), align: 1
  Segment part 9.             Intra module refs:   l2cap_lp_data_read
    -------------------------------------------------------------------------
<CODE> 3 (was CODE)
  Relative segment, address: 0001256E - 00012603 (0x96 bytes), align: 1
  Segment part 5.             Intra module refs:   l2cap_lp_data_read
           ENTRY                   ADDRESS         REF BY
           =====                   =======         ======
           l2cap_handle_sdu        0001256E 
               calls direct and indirect
               CSTACK = 00000000 ( 0000001C )
    -------------------------------------------------------------------------
<CODE> 3 (was CODE)
  Relative segment, address: 0001579E - 000157C9 (0x2c bytes), align: 1
  Segment part 4.             Intra module refs:   l2cap_lp_data_read
           ENTRY                   ADDRESS         REF BY
           =====                   =======         ======
           l2cap_reset_recombination_variables
                                   0001579E 
               calls direct
               CSTACK = 00000000 ( 00000008 )
    -------------------------------------------------------------------------
<CODE> 3 (was CODE)
  Relative segment, address: 0001428A - 000142DF (0x56 bytes), align: 1
  Segment part 3.             Intra module refs:   l2cap_lp_data_read
           ENTRY                   ADDRESS         REF BY
           =====                   =======         ======
           l2cap_get_payload_buffer
                                   0001428A 
               calls direct
               CSTACK = 00000000 ( 00000008 )
    -------------------------------------------------------------------------
<CODE> 3 (was CODE)
  Relative segment, address: 00010786 - 00010853 (0xce bytes), align: 1
  Segment part 2.             Intra module refs:   l2cap_lp_data_read
           ENTRY                   ADDRESS         REF BY
           =====                   =======         ======
           l2cap_mtu_check         00010786 
               calls direct
               CSTACK = 00000000 ( 00000020 )

    -------------------------------------------------------------------------
  LIBRARY MODULE, NAME : l2cap_data_send

  SEGMENTS IN THE MODULE
  ======================
<CODE> 3 (was CODE)
  Relative segment, address: 0001189A - 00011945 (0xac bytes), align: 1
  Segment part 4.
           ENTRY                   ADDRESS         REF BY
           =====                   =======         ======
           l2ca_data_write         0001189A        rfcomm_send_credits (rfcomm_write)
                                                   rfcomm_send_mode_frame (rfcomm_outgoing)
                                                   rfcomm_send_uih (rfcomm_outgoing)
                                                   sdp_l2cap_send (sdp_l2cap)
               calls direct
               CSTACK = 00000000 ( 0000001C )
    -------------------------------------------------------------------------
<CODE> 3 (was CODE)
  Relative segment, address: 00016A06 - 00016A0F (0xa bytes), align: 1
  Segment part 5.             Intra module refs:   l2ca_data_write
    -------------------------------------------------------------------------
<CODE> 3 (was CODE)
  Relative segment, address: 000129D8 - 00012A5D (0x86 bytes), align: 1
  Segment part 3.             Intra module refs:   l2ca_data_write
           ENTRY                   ADDRESS         REF BY
           =====                   =======         ======
           l2cap_send_co_data      000129D8 
               calls direct
               CSTACK = 00000000 ( 0000001C )

    -------------------------------------------------------------------------
  LIBRARY MODULE, NAME : l2cap_disconnect

  SEGMENTS IN THE MODULE
  ======================
<CODE> 3 (was CODE)
  Relative segment, address: 000166EC - 000166F3 (0x8 bytes), align: 1
  Segment part 6.             Intra module refs:   l2cap_disconnect_cid
    -------------------------------------------------------------------------
<CODE> 3 (was CODE)
  Relative segment, address: 000166F4 - 000166F9 (0x6 bytes), align: 1
  Segment part 7.             Intra module refs:   Segment part 6
                                                   l2ca_disconnect_req
                                                   l2cap_disconnect_cid
                                                   l2cap_disconnect_req
                                                   l2cap_disconnect_rsp
                                                   l2cap_lp_disconnect_ind
    -------------------------------------------------------------------------
<CODE> 2 (was CODE)
  Relative segment, address: F8AC - F99D (0xf2 bytes), align: 1
  Segment part 9.
           ENTRY                   ADDRESS         REF BY
           =====                   =======         ======
           l2ca_disconnect_req     F8AC            Segment part 16 (sdp_l2cap)
                                                   Segment part 19 (sdp_l2cap)
                                                   Segment part 5 (rfcomm_incoming)
                                                   Segment part 8 (rfcomm_l2cap)
                                                   l2cap_config_timeout_handler (l2cap_config)
                                                   rfcomm_command_timeout (rfcomm_outgoing)
                                                   rfcomm_handle_dm (rfcomm_incoming)
                                                   rfcomm_l2ca_config_cnf (rfcomm_l2cap)
                                                   rfcomm_l2cap_config_complete (rfcomm_l2cap)
                                                   sdp_l2cap_connect_cfm (sdp_l2cap)
                                                   sdp_l2cap_read (sdp_l2cap)
                                                   sdp_request_bh (sdp_bh)
               calls direct
               CSTACK = 00000000 ( 00000028 )
    -------------------------------------------------------------------------
<CODE> 3 (was CODE)
  Relative segment, address: 00016348 - 00016359 (0x12 bytes), align: 1
  Segment part 10.            Intra module refs:   l2ca_disconnect_req
                                                   l2cap_disconnect_rsp
    -------------------------------------------------------------------------
<CODE> 3 (was CODE)
  Relative segment, address: 00016BB0 - 00016BB5 (0x6 bytes), align: 1
  Segment part 11.            Intra module refs:   l2ca_disconnect_req
    -------------------------------------------------------------------------
<CODE> 3 (was CODE)
  Relative segment, address: 0001100E - 000110CB (0xbe bytes), align: 1
  Segment part 8.
           ENTRY                   ADDRESS         REF BY
           =====                   =======         ======
           l2cap_disconnect_req    0001100E        l2cap_sig_handler (l2cap_init)
               calls direct
               CSTACK = 00000000 ( 00000024 )
    -------------------------------------------------------------------------
<CODE> 3 (was CODE)
  Relative segment, address: 000132CC - 00013345 (0x7a bytes), align: 1
  Segment part 5.
           ENTRY                   ADDRESS         REF BY
           =====                   =======         ======
           l2cap_disconnect_rsp    000132CC        l2cap_sig_handler (l2cap_init)
               calls direct
               CSTACK = 00000000 ( 00000010 )
    -------------------------------------------------------------------------
<CODE> 3 (was CODE)
  Relative segment, address: 000105E8 - 000106B7 (0xd0 bytes), align: 1
  Segment part 3.
           ENTRY                   ADDRESS         REF BY
           =====                   =======         ======
           l2cap_lp_disconnect_ind
                                   000105E8        hci_disconnection_complete_event (hci_disconnect)
                                                   hci_handle_hardware_error (hci_events)
               calls direct
               CSTACK = 00000000 ( 00000018 )
    -------------------------------------------------------------------------
<CODE> 3 (was CODE)
  Relative segment, address: 0001685E - 00016869 (0xc bytes), align: 1
  Segment part 4.             Intra module refs:   l2cap_disconnect_cid
                                                   l2cap_lp_disconnect_ind
    -------------------------------------------------------------------------
<CODE> 1 (was CODE)
  Relative segment, address: DA9E - DBE7 (0x14a bytes), align: 1
  Segment part 2.             Intra module refs:   l2cap_disconnect_req
                                                   l2cap_disconnect_rsp
                                                   l2cap_lp_disconnect_ind
           ENTRY                   ADDRESS         REF BY
           =====                   =======         ======
           l2cap_disconnect_cid    DA9E            l2cap_command_timeout_handler (l2cap_signal)
                                                   l2cap_sm_access_response (l2cap_sm)
               calls direct and indirect
               CSTACK = 00000000 ( 0000004C )

    -------------------------------------------------------------------------
  LIBRARY MODULE, NAME : l2cap_init

  SEGMENTS IN THE MODULE
  ======================
DATA20_Z
  Relative segment, address: 2BEA - 2BED (0x4 bytes), align: 1
  Segment part 2.             Intra module refs:   Segment part 30
                                                   Segment part 36
                                                   Segment part 39
                                                   l2cap_init
           ENTRY                   ADDRESS         REF BY
           =====                   =======         ======
           l2cap_mutex             2BEA            Segment part 11 (l2cap_lmp)
                                                   Segment part 12 (l2cap_config)
                                                   Segment part 13 (l2cap_lmp)
                                                   Segment part 21 (l2cap_config)
                                                   Segment part 21 (l2cap_connect)
                                                   Segment part 4 (l2cap_disconnect)
                                                   Segment part 6 (l2cap_connect)
                                                   Segment part 7 (l2cap_connect)
                                                   l2ca_config_req (l2cap_config)
                                                   l2ca_data_write (l2cap_data_send)
                                                   l2ca_disconnect_req (l2cap_disconnect)
                                                   l2cap_command_timeout_handler (l2cap_signal)
                                                   l2cap_disconnect_cid (l2cap_disconnect)
                                                   l2cap_handle_sdu (l2cap_data_recv)
                                                   l2cap_lp_data_read (l2cap_data_recv)
                                                   l2cap_lp_disconnect_ind (l2cap_disconnect)
                                                   l2cap_sm_access_response (l2cap_sm)
    -------------------------------------------------------------------------
DATA20_Z
  Relative segment, address: 2BEE - 2C31 (0x44 bytes), align: 1
  Segment part 4.             Intra module refs:   l2cap_bt_init
                                                   l2cap_register_psm
           ENTRY                   ADDRESS         REF BY
           =====                   =======         ======
           l2cap_psm_list          2BEE            l2cap_config_req (l2cap_config)
                                                   l2cap_config_rsp (l2cap_config)
                                                   l2cap_connect_rsp (l2cap_connect)
                                                   l2cap_disconnect_cid (l2cap_disconnect)
                                                   l2cap_handle_sdu (l2cap_data_recv)
                                                   l2cap_is_psm_registered (l2cap_utils)
                                                   l2cap_send_connect_ind (l2cap_connect)
                                                   l2cap_sm_access_response (l2cap_sm)
    -------------------------------------------------------------------------
DATA20_Z
  Relative segment, address: 2C32 - 2CA1 (0x70 bytes), align: 1
  Segment part 5.             Intra module refs:   l2cap_bt_init
           ENTRY                   ADDRESS         REF BY
           =====                   =======         ======
           l2cap_sigch_list        2C32            l2cap_command_timeout_handler (l2cap_signal)
                                                   l2cap_config_rsp (l2cap_config)
                                                   l2cap_connect_req (l2cap_connect)
                                                   l2cap_connect_rsp (l2cap_connect)
                                                   l2cap_create_command (l2cap_command)
                                                   l2cap_disconnect_cid (l2cap_disconnect)
                                                   l2cap_is_handle_in_sigch_list (l2cap_utils)
                                                   l2cap_is_in_sigch_list (l2cap_utils)
                                                   l2cap_lp_connect_ind (l2cap_connect)
                                                   l2cap_lp_data_read (l2cap_data_recv)
                                                   l2cap_lp_data_write (l2cap_lmp)
                                                   l2cap_lp_disconnect_ind (l2cap_disconnect)
                                                   l2cap_lp_num_completed_packets (l2cap_lmp)
                                                   l2cap_send_connect_ind (l2cap_connect)
                                                   l2cap_sm_access_response (l2cap_sm)
    -------------------------------------------------------------------------
DATA20_Z
  Relative segment, address: 2CA2 - 2D61 (0xc0 bytes), align: 1
  Segment part 6.             Intra module refs:   l2cap_bt_init
           ENTRY                   ADDRESS         REF BY
           =====                   =======         ======
           l2cap_ce_list           2CA2            Segment part 10 (l2cap_disconnect)
                                                   Segment part 40 (l2cap_config)
                                                   Segment part 42 (l2cap_config)
                                                   l2ca_config_rsp (l2cap_config)
                                                   l2ca_connect_rsp (l2cap_connect)
                                                   l2ca_data_write (l2cap_data_send)
                                                   l2ca_disconnect_req (l2cap_disconnect)
                                                   l2cap_command_timeout_handler (l2cap_signal)
                                                   l2cap_config_req (l2cap_config)
                                                   l2cap_config_rsp (l2cap_config)
                                                   l2cap_config_timeout_handler (l2cap_config)
                                                   l2cap_connect_rsp (l2cap_connect)
                                                   l2cap_create_ce (l2cap_utils)
                                                   l2cap_delete_ce (l2cap_utils)
                                                   l2cap_disconnect_req (l2cap_disconnect)
                                                   l2cap_disconnect_rsp (l2cap_disconnect)
                                                   l2cap_frame_tx_pdu (l2cap_lmp)
                                                   l2cap_get_payload_buffer (l2cap_data_recv)
                                                   l2cap_handle_sdu (l2cap_data_recv)
                                                   l2cap_lp_data_write (l2cap_lmp)
                                                   l2cap_lp_disconnect_ind (l2cap_disconnect)
                                                   l2cap_mtu_check (l2cap_data_recv)
                                                   l2cap_sm_access_response (l2cap_sm)
    -------------------------------------------------------------------------
DATA20_Z
  Relative segment, address: 2D62 - 2E69 (0x108 bytes), align: 1
  Segment part 7.             Intra module refs:   l2cap_bt_init
           ENTRY                   ADDRESS         REF BY
           =====                   =======         ======
           l2cap_command_list      2D62            l2ca_config_req (l2cap_config)
                                                   l2ca_config_rsp (l2cap_config)
                                                   l2ca_disconnect_req (l2cap_disconnect)
                                                   l2cap_command_timeout_handler (l2cap_signal)
                                                   l2cap_command_write (l2cap_command)
                                                   l2cap_config_req (l2cap_config)
                                                   l2cap_config_rsp (l2cap_config)
                                                   l2cap_config_timeout_handler (l2cap_config)
                                                   l2cap_connect_rsp (l2cap_connect)
                                                   l2cap_create_command (l2cap_command)
                                                   l2cap_create_config_req (l2cap_config)
                                                   l2cap_data_transmitter_bh (l2cap_lmp)
                                                   l2cap_delete_ce (l2cap_utils)
                                                   l2cap_delete_command (l2cap_command)
                                                   l2cap_disconnect_req (l2cap_disconnect)
                                                   l2cap_disconnect_rsp (l2cap_disconnect)
                                                   l2cap_echo_req (l2cap_ping)
                                                   l2cap_frame_tx_pdu (l2cap_lmp)
                                                   l2cap_info_req (l2cap_ping)
                                                   l2cap_lp_data_write (l2cap_lmp)
                                                   l2cap_lp_disconnect_ind (l2cap_disconnect)
                                                   l2cap_search_command (l2cap_command)
                                                   l2cap_send_command_rej (l2cap_signal)
                                                   l2cap_send_config_rsp (l2cap_config)
                                                   l2cap_send_connect_req (l2cap_connect)
                                                   l2cap_send_connect_rsp (l2cap_connect)
                                                   l2cap_update_command (l2cap_command)
    -------------------------------------------------------------------------
DATA20_Z
  Relative segment, address: 2E6A - 2FC7 (0x15e bytes), align: 1
  Segment part 8.             Intra module refs:   l2cap_bt_init
           ENTRY                   ADDRESS         REF BY
           =====                   =======         ======
           l2cap_buffer_list       2E6A            Segment part 12 (l2cap_utils)
                                                   l2cap_allocate_buffer_element (l2cap_utils)
                                                   l2cap_buffer_dequeue (l2cap_utils)
                                                   l2cap_buffer_enqueue (l2cap_utils)
                                                   l2cap_command_write (l2cap_command)
                                                   l2cap_data_transmitter_bh (l2cap_lmp)
                                                   l2cap_frame_tx_pdu (l2cap_lmp)
                                                   l2cap_free_buffer_element (l2cap_utils)
                                                   l2cap_lp_data_write (l2cap_lmp)
                                                   l2cap_send_co_data (l2cap_data_send)
    -------------------------------------------------------------------------
DATA20_Z
  Relative segment, address: 2FC8 - 2FCB (0x4 bytes), align: 1
  Segment part 9.             Intra module refs:   l2cap_bt_init
           ENTRY                   ADDRESS         REF BY
           =====                   =======         ======
           l2cap_buffer_num_available
                                   2FC8            l2cap_allocate_buffer_element (l2cap_utils)
                                                   l2cap_free_buffer_element (l2cap_utils)
                                                   l2cap_tx_queue_flow_control (l2cap_utils)
    -------------------------------------------------------------------------
DATA20_Z
  Relative segment, address: 2FCC - 2FCF (0x4 bytes), align: 1
  Segment part 10.            Intra module refs:   l2cap_bt_init
           ENTRY                   ADDRESS         REF BY
           =====                   =======         ======
           l2cap_tx_queue_lwm      2FCC            l2cap_tx_queue_flow_control (l2cap_utils)
    -------------------------------------------------------------------------
DATA20_Z
  Relative segment, address: 2FD0 - 2FD3 (0x4 bytes), align: 1
  Segment part 11.            Intra module refs:   l2cap_bt_init
           ENTRY                   ADDRESS         REF BY
           =====                   =======         ======
           l2cap_tx_queue_hwm      2FD0            l2cap_tx_queue_flow_control (l2cap_utils)
    -------------------------------------------------------------------------
DATA20_Z
  Relative segment, address: 3FDB - 3FDB (0x1 bytes), align: 0
  Segment part 12.            Intra module refs:   l2cap_bt_init
           ENTRY                   ADDRESS         REF BY
           =====                   =======         ======
           l2cap_tx_queue_flow_state
                                   3FDB            l2cap_tx_queue_flow_control (l2cap_utils)
    -------------------------------------------------------------------------
DATA20_Z
  Relative segment, address: 2FD4 - 2FD7 (0x4 bytes), align: 1
  Segment part 13.            Intra module refs:   l2cap_bt_init
                                                   l2cap_register_tx_queue_flow_cb
           ENTRY                   ADDRESS         REF BY
           =====                   =======         ======
           l2cap_tx_queue_flow_cb
                                   2FD4            l2cap_tx_queue_flow_control (l2cap_utils)
    -------------------------------------------------------------------------
DATA20_Z
  Relative segment, address: 2FD8 - 3087 (0xb0 bytes), align: 1
  Segment part 14.            Intra module refs:   l2cap_bt_init
           ENTRY                   ADDRESS         REF BY
           =====                   =======         ======
           l2cap_flow_spec_list    2FD8            Segment part 17 (l2cap_utils)
                                                   Segment part 25 (l2cap_config)
                                                   Segment part 30 (l2cap_config)
                                                   Segment part 35 (l2cap_config)
                                                   l2cap_allocate_flow_spec (l2cap_utils)
                                                   l2cap_is_equal_flow_spec (l2cap_utils)
    -------------------------------------------------------------------------
DATA20_Z
  Relative segment, address: 3088 - 309D (0x16 bytes), align: 1
  Segment part 15.            Intra module refs:   l2cap_init
           ENTRY                   ADDRESS         REF BY
           =====                   =======         ======
           l2cap_default_flow_spec
                                   3088            l2ca_config_req (l2cap_config)
                                                   l2cap_config_req (l2cap_config)
                                                   l2cap_is_equal_flow_spec (l2cap_utils)
                                                   l2cap_move_to_open (l2cap_config)
    -------------------------------------------------------------------------
DATA20_Z
  Relative segment, address: 309E - 309F (0x2 bytes), align: 1
  Segment part 16.            Intra module refs:   l2cap_bt_init
           ENTRY                   ADDRESS         REF BY
           =====                   =======         ======
           l2cap_config_timeout    309E            l2cap_start_config_timer (l2cap_config)
    -------------------------------------------------------------------------
DATA20_Z
  Relative segment, address: 3FDC - 3FDC (0x1 bytes), align: 0
  Segment part 17.            Intra module refs:   l2cap_bt_init
           ENTRY                   ADDRESS         REF BY
           =====                   =======         ======
           l2cap_sig_id_counter    3FDC            l2cap_create_command (l2cap_command)
    -------------------------------------------------------------------------
DATA20_C
  Relative segment, address: 00016D04 - 00016D2F (0x2c bytes), align: 1
  Segment part 18.
           ENTRY                   ADDRESS         REF BY
           =====                   =======         ======
           l2cap_sig_handler       00016D04        l2cap_lp_data_read (l2cap_data_recv)
    -------------------------------------------------------------------------
DATA20_Z
  Relative segment, address: 30A0 - 30A1 (0x2 bytes), align: 1
  Segment part 19.            Intra module refs:   l2cap_init
           ENTRY                   ADDRESS         REF BY
           =====                   =======         ======
           l2cap_lp_max_acl_packets
                                   30A0            l2cap_lp_acl_buffer_size (l2cap_lmp)
                                                   l2cap_lp_num_completed_packets (l2cap_lmp)
    -------------------------------------------------------------------------
DATA20_Z
  Relative segment, address: 30A2 - 30A3 (0x2 bytes), align: 1
  Segment part 20.            Intra module refs:   l2cap_init
           ENTRY                   ADDRESS         REF BY
           =====                   =======         ======
           l2cap_lp_max_acl_packet_size
                                   30A2            l2cap_lp_acl_buffer_size (l2cap_lmp)
                                                   l2cap_lp_data_write (l2cap_lmp)
    -------------------------------------------------------------------------
DATA20_Z
  Relative segment, address: 30A4 - 30A5 (0x2 bytes), align: 1
  Segment part 21.
           ENTRY                   ADDRESS         REF BY
           =====                   =======         ======
           l2cap_lp_num_acl_packets
                                   30A4            l2cap_lp_acl_buffer_size (l2cap_lmp)
                                                   l2cap_lp_data_write (l2cap_lmp)
                                                   l2cap_lp_disconnect_ind (l2cap_disconnect)
                                                   l2cap_lp_num_completed_packets (l2cap_lmp)
                                                   l2cap_schedule_data_tx (l2cap_lmp)
    -------------------------------------------------------------------------
DATA20_Z
  Relative segment, address: 3FDD - 3FDD (0x1 bytes), align: 0
  Segment part 22.            Intra module refs:   l2cap_bt_init
           ENTRY                   ADDRESS         REF BY
           =====                   =======         ======
           l2cap_schedule_tx       3FDD            l2cap_data_transmitter_bh (l2cap_lmp)
                                                   l2cap_schedule_data_tx (l2cap_lmp)
    -------------------------------------------------------------------------
DATA20_Z
  Relative segment, address: 30A6 - 30A9 (0x4 bytes), align: 1
  Segment part 23.            Intra module refs:   l2cap_bt_init
           ENTRY                   ADDRESS         REF BY
           =====                   =======         ======
           l2cap_tx_q_start        30A6            Segment part 6 (l2cap_lmp)
                                                   l2cap_buffer_dequeue (l2cap_utils)
                                                   l2cap_buffer_enqueue (l2cap_utils)
                                                   l2cap_data_transmitter_bh (l2cap_lmp)
                                                   l2cap_schedule_data_tx (l2cap_lmp)
    -------------------------------------------------------------------------
DATA20_Z
  Relative segment, address: 30AA - 30AD (0x4 bytes), align: 1
  Segment part 24.            Intra module refs:   l2cap_bt_init
           ENTRY                   ADDRESS         REF BY
           =====                   =======         ======
           l2cap_tx_q_end          30AA            l2cap_buffer_dequeue (l2cap_utils)
                                                   l2cap_buffer_enqueue (l2cap_utils)
                                                   l2cap_data_transmitter_bh (l2cap_lmp)
    -------------------------------------------------------------------------
DATA20_Z
  Relative segment, address: 30AE - 30C3 (0x16 bytes), align: 1
  Segment part 26.            Intra module refs:   l2cap_bt_init
           ENTRY                   ADDRESS         REF BY
           =====                   =======         ======
           l2cap_tx_pdu            30AE            l2cap_buffer_dequeue (l2cap_utils)
                                                   l2cap_data_transmitter_bh (l2cap_lmp)
                                                   l2cap_frame_tx_pdu (l2cap_lmp)
                                                   l2cap_lp_data_write (l2cap_lmp)
    -------------------------------------------------------------------------
<CODE> 3 (was CODE)
  Relative segment, address: 00015AE0 - 00015B03 (0x24 bytes), align: 1
  Segment part 41.
           ENTRY                   ADDRESS         REF BY
           =====                   =======         ======
           l2cap_init              00015AE0        BT_ethermind_init (BT_common)
               calls direct
               CSTACK = 00000000 ( 00000004 )
    -------------------------------------------------------------------------
<CODE> 3 (was CODE)
  Relative segment, address: 000167DA - 000167E5 (0xc bytes), align: 1
  Segment part 36.            Intra module refs:   l2cap_bt_init
                                                   l2cap_register_psm
                                                   l2cap_register_tx_queue_flow_cb
    -------------------------------------------------------------------------
<CODE> 3 (was CODE)
  Relative segment, address: 00016B26 - 00016B2D (0x8 bytes), align: 1
  Segment part 39.            Intra module refs:   l2cap_bt_init
                                                   l2cap_register_psm
    -------------------------------------------------------------------------
<CODE> 1 (was CODE)
  Relative segment, address: E0EA - E21F (0x136 bytes), align: 1
  Segment part 40.
           ENTRY                   ADDRESS         REF BY
           =====                   =======         ======
           l2cap_bt_init           E0EA            BT_bluetooth_on (BT_common)
               calls direct
               CSTACK = 00000000 ( 00000004 )
    -------------------------------------------------------------------------
<CODE> 3 (was CODE)
  Relative segment, address: 0001686A - 00016875 (0xc bytes), align: 1
  Segment part 37.
           ENTRY                   ADDRESS         REF BY
           =====                   =======         ======
           l2cap_init_psm          0001686A        rfcomm_bt_init (rfcomm_init)
                                                   sdp_bt_init (sdp_init)
               CSTACK = 00000000 ( 00000004 )
    -------------------------------------------------------------------------
<CODE> 3 (was CODE)
  Relative segment, address: 000117EE - 00011899 (0xac bytes), align: 1
  Segment part 35.
           ENTRY                   ADDRESS         REF BY
           =====                   =======         ======
           l2cap_register_psm      000117EE        rfcomm_bt_init (rfcomm_init)
                                                   sdp_bt_init (sdp_init)
               calls direct
               CSTACK = 00000000 ( 0000001C )
    -------------------------------------------------------------------------
<CODE> 3 (was CODE)
  Relative segment, address: 0001608E - 000160A3 (0x16 bytes), align: 1
  Segment part 30.            Intra module refs:   l2cap_register_tx_queue_flow_cb
    -------------------------------------------------------------------------
<CODE> 3 (was CODE)
  Relative segment, address: 00015A00 - 00015A25 (0x26 bytes), align: 1
  Segment part 31.
           ENTRY                   ADDRESS         REF BY
           =====                   =======         ======
           l2cap_register_tx_queue_flow_cb
                                   00015A00        appl_spp_start (appl_spp)
               calls direct
               CSTACK = 00000000 ( 00000008 )

    -------------------------------------------------------------------------
  LIBRARY MODULE, NAME : l2cap_lmp

  SEGMENTS IN THE MODULE
  ======================
<CODE> 3 (was CODE)
  Relative segment, address: 00016B2E - 00016B35 (0x8 bytes), align: 1
  Segment part 11.            Intra module refs:   l2cap_data_transmitter_bh
                                                   l2cap_lp_acl_buffer_size
                                                   l2cap_lp_num_completed_packets
    -------------------------------------------------------------------------
<CODE> 3 (was CODE)
  Relative segment, address: 0001643E - 00016441 (0x4 bytes), align: 1
  Segment part 12.            Intra module refs:   l2cap_lp_acl_buffer_size
                                                   l2cap_lp_num_completed_packets
    -------------------------------------------------------------------------
<CODE> 3 (was CODE)
  Relative segment, address: 00016442 - 0001644D (0xc bytes), align: 1
  Segment part 13.            Intra module refs:   Segment part 12
                                                   l2cap_data_transmitter_bh
    -------------------------------------------------------------------------
<CODE> 3 (was CODE)
  Relative segment, address: 00015B04 - 00015B25 (0x22 bytes), align: 1
  Segment part 14.
           ENTRY                   ADDRESS         REF BY
           =====                   =======         ======
           l2cap_lp_acl_buffer_size
                                   00015B04        hci_command_complete_event (hci_events)
               calls direct
               CSTACK = 00000000 ( 0000000C )
    -------------------------------------------------------------------------
<CODE> 3 (was CODE)
  Relative segment, address: 0001600A - 00016015 (0xc bytes), align: 1
  Segment part 6.             Intra module refs:   l2cap_frame_tx_pdu
                                                   l2cap_lp_data_write
    -------------------------------------------------------------------------
<CODE> 3 (was CODE)
  Relative segment, address: 00016016 - 00016019 (0x4 bytes), align: 1
  Segment part 7.             Intra module refs:   Segment part 6
                                                   l2cap_data_transmitter_bh
    -------------------------------------------------------------------------
<CODE> 3 (was CODE)
  Relative segment, address: 0001601A - 0001601F (0x6 bytes), align: 1
  Segment part 8.             Intra module refs:   Segment part 7
                                                   l2cap_data_transmitter_bh
                                                   l2cap_frame_tx_pdu
                                                   l2cap_lp_data_write
                                                   l2cap_lp_num_completed_packets
    -------------------------------------------------------------------------
<CODE> 3 (was CODE)
  Relative segment, address: 00013C52 - 00013CB7 (0x66 bytes), align: 1
  Segment part 10.
           ENTRY                   ADDRESS         REF BY
           =====                   =======         ======
           l2cap_lp_num_completed_packets
                                   00013C52        hci_number_of_completed_packets_event (hci_events)
               calls direct
               CSTACK = 00000000 ( 00000010 )
    -------------------------------------------------------------------------
<CODE> 3 (was CODE)
  Relative segment, address: 00014DE8 - 00014E29 (0x42 bytes), align: 1
  Segment part 9.             Intra module refs:   l2cap_lp_num_completed_packets
           ENTRY                   ADDRESS         REF BY
           =====                   =======         ======
           l2cap_schedule_data_tx
                                   00014DE8        ehcill_handle_wake_up_ack (appl_bt_rf)
                                                   ehcill_handle_wake_up_ind (appl_bt_rf)
                                                   l2cap_buffer_enqueue (l2cap_utils)
               calls direct
               CSTACK = 00000000 ( 00000004 )
    -------------------------------------------------------------------------
<CODE> 3 (was CODE)
  Relative segment, address: 00010B7C - 00010C41 (0xc6 bytes), align: 1
  Segment part 5.             Intra module refs:   l2cap_schedule_data_tx
           ENTRY                   ADDRESS         REF BY
           =====                   =======         ======
           l2cap_data_transmitter_bh
                                   00010B7C 
               calls direct
               CSTACK = 00000000 ( 0000001C )
    -------------------------------------------------------------------------
<CODE> 1 (was CODE)
  Relative segment, address: D21C - D3AB (0x190 bytes), align: 1
  Segment part 3.             Intra module refs:   l2cap_data_transmitter_bh
           ENTRY                   ADDRESS         REF BY
           =====                   =======         ======
           l2cap_lp_data_write     D21C 
               calls direct
               CSTACK = 00000000 ( 0000002A )
    -------------------------------------------------------------------------
<CODE> 3 (was CODE)
  Relative segment, address: 00016B8C - 00016B91 (0x6 bytes), align: 1
  Segment part 4.             Intra module refs:   l2cap_lp_data_write
    -------------------------------------------------------------------------
<CODE> 3 (was CODE)
  Relative segment, address: 00011FD4 - 00012077 (0xa4 bytes), align: 1
  Segment part 2.             Intra module refs:   l2cap_data_transmitter_bh
           ENTRY                   ADDRESS         REF BY
           =====                   =======         ======
           l2cap_frame_tx_pdu      00011FD4 
               CSTACK = 00000000 ( 0000000C )

    -------------------------------------------------------------------------
  LIBRARY MODULE, NAME : l2cap_ping

  SEGMENTS IN THE MODULE
  ======================
<CODE> 3 (was CODE)
  Relative segment, address: 00013DE0 - 00013E3F (0x60 bytes), align: 1
  Segment part 7.
           ENTRY                   ADDRESS         REF BY
           =====                   =======         ======
           l2cap_echo_req          00013DE0        l2cap_sig_handler (l2cap_init)
               calls direct
               CSTACK = 00000000 ( 0000001E )
    -------------------------------------------------------------------------
<CODE> 3 (was CODE)
  Relative segment, address: 000169A2 - 000169AB (0xa bytes), align: 1
  Segment part 8.             Intra module refs:   l2cap_echo_req
                                                   l2cap_info_req
    -------------------------------------------------------------------------
<CODE> 3 (was CODE)
  Relative segment, address: 00013526 - 00013599 (0x74 bytes), align: 1
  Segment part 5.
           ENTRY                   ADDRESS         REF BY
           =====                   =======         ======
           l2cap_info_req          00013526        l2cap_sig_handler (l2cap_init)
               calls direct
               CSTACK = 00000000 ( 00000016 )
    -------------------------------------------------------------------------
<CODE> 3 (was CODE)
  Relative segment, address: 00016998 - 000169A1 (0xa bytes), align: 1
  Segment part 6.             Intra module refs:   l2cap_info_req
    -------------------------------------------------------------------------
<CODE> 3 (was CODE)
  Relative segment, address: 00016C00 - 00016C01 (0x2 bytes), align: 1
  Segment part 3.
           ENTRY                   ADDRESS         REF BY
           =====                   =======         ======
           l2cap_echo_rsp          00016C00        l2cap_sig_handler (l2cap_init)
               CSTACK = 00000000 ( 00000004 )
    -------------------------------------------------------------------------
<CODE> 3 (was CODE)
  Relative segment, address: 00015EEC - 00015F03 (0x18 bytes), align: 1
  Segment part 2.
           ENTRY                   ADDRESS         REF BY
           =====                   =======         ======
           l2cap_info_rsp          00015EEC        l2cap_sig_handler (l2cap_init)
               calls direct
               CSTACK = 00000000 ( 00000004 )

    -------------------------------------------------------------------------
  LIBRARY MODULE, NAME : l2cap_signal

  SEGMENTS IN THE MODULE
  ======================
<CODE> 1 (was CODE)
  Relative segment, address: D3AC - D523 (0x178 bytes), align: 1
  Segment part 5.
           ENTRY                   ADDRESS         REF BY
           =====                   =======         ======
           l2cap_command_timeout_handler
                                   D3AC            l2cap_connect_rsp (l2cap_connect)
                                                   l2cap_create_command (l2cap_command)
               calls direct
               CSTACK = 00000000 ( 00000030 )
    -------------------------------------------------------------------------
<CODE> 3 (was CODE)
  Relative segment, address: 00016794 - 000167A1 (0xe bytes), align: 1
  Segment part 6.             Intra module refs:   l2cap_command_timeout_handler
    -------------------------------------------------------------------------
<CODE> 3 (was CODE)
  Relative segment, address: 000163C6 - 000163D7 (0x12 bytes), align: 1
  Segment part 7.             Intra module refs:   l2cap_command_timeout_handler
    -------------------------------------------------------------------------
<CODE> 3 (was CODE)
  Relative segment, address: 00012A5E - 00012AE3 (0x86 bytes), align: 1
  Segment part 4.
           ENTRY                   ADDRESS         REF BY
           =====                   =======         ======
           l2cap_send_command_rej
                                   00012A5E        l2cap_config_req (l2cap_config)
                                                   l2cap_disconnect_req (l2cap_disconnect)
                                                   l2cap_lp_data_read (l2cap_data_recv)
                                                   l2cap_mtu_check (l2cap_data_recv)
               calls direct
               CSTACK = 00000000 ( 0000001E )
    -------------------------------------------------------------------------
<CODE> 3 (was CODE)
  Relative segment, address: 00015E04 - 00015E1D (0x1a bytes), align: 1
  Segment part 3.
           ENTRY                   ADDRESS         REF BY
           =====                   =======         ======
           l2cap_command_rej       00015E04        l2cap_sig_handler (l2cap_init)
               calls direct
               CSTACK = 00000000 ( 00000004 )
    -------------------------------------------------------------------------
<CODE> 3 (was CODE)
  Relative segment, address: 00016BC4 - 00016BC7 (0x4 bytes), align: 1
  Segment part 2.
           ENTRY                   ADDRESS         REF BY
           =====                   =======         ======
           l2cap_lp_mode_change_ind
                                   00016BC4        hci_mode_change_event (hci_events)
               CSTACK = 00000000 ( 00000004 )

    -------------------------------------------------------------------------
  LIBRARY MODULE, NAME : l2cap_sm

  SEGMENTS IN THE MODULE
  ======================
<CODE> 3 (was CODE)
  Relative segment, address: 0001239E - 0001243B (0x9e bytes), align: 1
  Segment part 3.
           ENTRY                   ADDRESS         REF BY
           =====                   =======         ======
           l2cap_sm_access_request
                                   0001239E        l2ca_connect_req (l2cap_connect)
                                                   l2cap_connect_req (l2cap_connect)
               calls direct
               CSTACK = 00000000 ( 00000024 )
    -------------------------------------------------------------------------
<CODE> 1 (was CODE)
  Relative segment, address: EE72 - EF7B (0x10a bytes), align: 1
  Segment part 2.
           ENTRY                   ADDRESS         REF BY
           =====                   =======         ======
           l2cap_sm_access_response
                                   EE72            sm_state_machine (sm_core)
               calls direct
               CSTACK = 00000000 ( 0000002C )

    -------------------------------------------------------------------------
  LIBRARY MODULE, NAME : l2cap_utils

  SEGMENTS IN THE MODULE
  ======================
<CODE> 3 (was CODE)
  Relative segment, address: 00015292 - 000152C9 (0x38 bytes), align: 1
  Segment part 22.
           ENTRY                   ADDRESS         REF BY
           =====                   =======         ======
           l2cap_is_psm_registered
                                   00015292        l2ca_connect_req (l2cap_connect)
                                                   l2cap_connect_req (l2cap_connect)
               CSTACK = 00000000 ( 00000008 )
    -------------------------------------------------------------------------
<CODE> 3 (was CODE)
  Relative segment, address: 0001466A - 000146B7 (0x4e bytes), align: 1
  Segment part 21.
           ENTRY                   ADDRESS         REF BY
           =====                   =======         ======
           l2cap_is_in_sigch_list
                                   0001466A        l2ca_connect_req (l2cap_connect)
                                                   l2cap_lp_disconnect_ind (l2cap_disconnect)
               calls direct
               CSTACK = 00000000 ( 0000001C )
    -------------------------------------------------------------------------
<CODE> 3 (was CODE)
  Relative segment, address: 00015448 - 0001547B (0x34 bytes), align: 1
  Segment part 20.
           ENTRY                   ADDRESS         REF BY
           =====                   =======         ======
           l2cap_is_handle_in_sigch_list
                                   00015448        l2cap_lp_data_read (l2cap_data_recv)
                                                   l2cap_lp_num_completed_packets (l2cap_lmp)
               CSTACK = 00000000 ( 00000008 )
    -------------------------------------------------------------------------
<CODE> 1 (was CODE)
  Relative segment, address: B12C - B133 (0x8 bytes), align: 1
  Segment part 9.             Intra module refs:   l2cap_buffer_dequeue
    -------------------------------------------------------------------------
<CODE> 1 (was CODE)
  Relative segment, address: B134 - B195 (0x62 bytes), align: 1
  Segment part 10.
           ENTRY                   ADDRESS         REF BY
           =====                   =======         ======
           l2cap_buffer_enqueue    B134            l2cap_command_write (l2cap_command)
                                                   l2cap_send_co_data (l2cap_data_send)
               calls direct
               CSTACK = 00000000 ( 00000014 )
    -------------------------------------------------------------------------
<CODE> 1 (was CODE)
  Relative segment, address: B196 - B201 (0x6c bytes), align: 1
  Segment part 11.
           ENTRY                   ADDRESS         REF BY
           =====                   =======         ======
           l2cap_allocate_buffer_element
                                   B196            l2cap_command_write (l2cap_command)
                                                   l2cap_send_co_data (l2cap_data_send)
               calls direct
               CSTACK = 00000000 ( 00000014 )
    -------------------------------------------------------------------------
<CODE> 1 (was CODE)
  Relative segment, address: B202 - B20F (0xe bytes), align: 1
  Segment part 12.            Intra module refs:   l2cap_allocate_buffer_element
                                                   l2cap_buffer_enqueue
    -------------------------------------------------------------------------
<CODE> 1 (was CODE)
  Relative segment, address: B210 - B213 (0x4 bytes), align: 1
  Segment part 13.            Intra module refs:   l2cap_allocate_buffer_element
                                                   l2cap_buffer_dequeue
    -------------------------------------------------------------------------
<CODE> 1 (was CODE)
  Relative segment, address: B214 - B217 (0x4 bytes), align: 1
  Segment part 14.            Intra module refs:   Segment part 13
                                                   Segment part 9
                                                   l2cap_buffer_dequeue
                                                   l2cap_buffer_enqueue
                                                   l2cap_free_buffer_element
    -------------------------------------------------------------------------
<CODE> 1 (was CODE)
  Relative segment, address: B218 - B21D (0x6 bytes), align: 1
  Segment part 15.            Intra module refs:   Segment part 14
                                                   Segment part 19
                                                   l2cap_allocate_flow_spec
    -------------------------------------------------------------------------
<CODE> 1 (was CODE)
  Relative segment, address: B21E - B2D3 (0xb6 bytes), align: 1
  Segment part 16.
           ENTRY                   ADDRESS         REF BY
           =====                   =======         ======
           l2cap_delete_ce         B21E            l2ca_connect_rsp (l2cap_connect)
                                                   l2cap_connect_rsp (l2cap_connect)
                                                   l2cap_disconnect_cid (l2cap_disconnect)
                                                   l2cap_sm_access_request (l2cap_sm)
                                                   l2cap_sm_access_response (l2cap_sm)
               calls direct
               CSTACK = 00000000 ( 0000001C )
    -------------------------------------------------------------------------
<CODE> 1 (was CODE)
  Relative segment, address: B2D4 - B2E7 (0x14 bytes), align: 1
  Segment part 17.            Intra module refs:   l2cap_delete_ce
    -------------------------------------------------------------------------
<CODE> 1 (was CODE)
  Relative segment, address: B2E8 - B369 (0x82 bytes), align: 1
  Segment part 18.
           ENTRY                   ADDRESS         REF BY
           =====                   =======         ======
           l2cap_create_ce         B2E8            l2ca_connect_req (l2cap_connect)
                                                   l2cap_connect_req (l2cap_connect)
               CSTACK = 00000000 ( 00000004 )
    -------------------------------------------------------------------------
<CODE> 1 (was CODE)
  Relative segment, address: B36A - B371 (0x8 bytes), align: 1
  Segment part 19.            Intra module refs:   l2cap_create_ce
                                                   l2cap_delete_ce
    -------------------------------------------------------------------------
<CODE> 3 (was CODE)
  Relative segment, address: 00013D1C - 00013D7D (0x62 bytes), align: 1
  Segment part 7.             Intra module refs:   l2cap_buffer_dequeue
           ENTRY                   ADDRESS         REF BY
           =====                   =======         ======
           l2cap_free_buffer_element
                                   00013D1C        l2cap_data_transmitter_bh (l2cap_lmp)
               calls direct
               CSTACK = 00000000 ( 00000008 )
    -------------------------------------------------------------------------
<CODE> 3 (was CODE)
  Relative segment, address: 000137CC - 00013839 (0x6e bytes), align: 1
  Segment part 6.             Intra module refs:   l2cap_allocate_buffer_element
                                                   l2cap_free_buffer_element
           ENTRY                   ADDRESS         REF BY
           =====                   =======         ======
           l2cap_tx_queue_flow_control
                                   000137CC 
               calls indirect
               CSTACK = 00000000 ( 00000004 )
    -------------------------------------------------------------------------
<CODE> 1 (was CODE)
  Relative segment, address: E220 - E34F (0x130 bytes), align: 1
  Segment part 8.             Intra module refs:   l2cap_delete_ce
           ENTRY                   ADDRESS         REF BY
           =====                   =======         ======
           l2cap_buffer_dequeue    E220            Segment part 4 (l2cap_command)
                                                   l2cap_command_timeout_handler (l2cap_signal)
               calls direct
               CSTACK = 00000000 ( 0000002A )
    -------------------------------------------------------------------------
<CODE> 3 (was CODE)
  Relative segment, address: 00014750 - 0001479B (0x4c bytes), align: 1
  Segment part 5.
           ENTRY                   ADDRESS         REF BY
           =====                   =======         ======
           l2cap_allocate_flow_spec
                                   00014750        l2ca_config_req (l2cap_config)
                                                   l2cap_config_req (l2cap_config)
               calls direct
               CSTACK = 00000000 ( 00000014 )
    -------------------------------------------------------------------------
<CODE> 3 (was CODE)
  Relative segment, address: 000153E0 - 00015413 (0x34 bytes), align: 1
  Segment part 4.
           ENTRY                   ADDRESS         REF BY
           =====                   =======         ======
           l2cap_get_timeout       000153E0        l2cap_command_timeout_handler (l2cap_signal)
                                                   l2cap_connect_rsp (l2cap_connect)
                                                   l2cap_create_command (l2cap_command)
               CSTACK = 00000000 ( 00000004 )
    -------------------------------------------------------------------------
<CODE> 3 (was CODE)
  Relative segment, address: 000130E4 - 0001315D (0x7a bytes), align: 1
  Segment part 3.
           ENTRY                   ADDRESS         REF BY
           =====                   =======         ======
           l2cap_is_equal_flow_spec
                                   000130E4        l2ca_config_req (l2cap_config)
                                                   l2ca_config_rsp (l2cap_config)
                                                   l2cap_move_to_open (l2cap_config)
               CSTACK = 00000000 ( 00000004 )
    -------------------------------------------------------------------------
<CODE> 3 (was CODE)
  Relative segment, address: 0001565E - 0001568B (0x2e bytes), align: 1
  Segment part 2.             Intra module refs:   l2cap_allocate_flow_spec
           ENTRY                   ADDRESS         REF BY
           =====                   =======         ======
           l2cap_init_flow_spec_default
                                   0001565E        Segment part 25 (sdp_l2cap)
                                                   l2cap_disconnect_cid (l2cap_disconnect)
                                                   l2cap_init (l2cap_init)
                                                   l2cap_lp_connect_ind (l2cap_connect)
                                                   rfcomm_l2ca_config_ind (rfcomm_l2cap)
                                                   rfcomm_l2ca_connect_cnf (rfcomm_l2cap)
               CSTACK = 00000000 ( 00000004 )

    -------------------------------------------------------------------------
  LIBRARY MODULE, NAME : rfcomm_api

  SEGMENTS IN THE MODULE
  ======================
<CODE> 3 (was CODE)
  Relative segment, address: 000148CC - 000148D1 (0x6 bytes), align: 1
  Segment part 7.             Intra module refs:   Segment part 28
    -------------------------------------------------------------------------
<CODE> 3 (was CODE)
  Relative segment, address: 000148D2 - 000148D9 (0x8 bytes), align: 1
  Segment part 15.            Intra module refs:   Segment part 34
    -------------------------------------------------------------------------
<CODE> 3 (was CODE)
  Relative segment, address: 000148DA - 000148DD (0x4 bytes), align: 1
  Segment part 20.            Intra module refs:   BT_rfcomm_accept_cancel
    -------------------------------------------------------------------------
<CODE> 3 (was CODE)
  Relative segment, address: 000148DE - 000148E5 (0x8 bytes), align: 1
  Segment part 21.            Intra module refs:   Segment part 20
                                                   rfcomm_common_api_handler
    -------------------------------------------------------------------------
<CODE> 3 (was CODE)
  Relative segment, address: 000148E6 - 000148F3 (0xe bytes), align: 1
  Segment part 27.            Intra module refs:   BT_rfcomm_close
    -------------------------------------------------------------------------
<CODE> 3 (was CODE)
  Relative segment, address: 000148F4 - 00014905 (0x12 bytes), align: 1
  Segment part 28.            Intra module refs:   BT_rfcomm_accept_cancel
    -------------------------------------------------------------------------
<CODE> 3 (was CODE)
  Relative segment, address: 00014906 - 0001490F (0xa bytes), align: 1
  Segment part 31.            Intra module refs:   BT_rfcomm_accept
    -------------------------------------------------------------------------
<CODE> 3 (was CODE)
  Relative segment, address: 00014910 - 00014915 (0x6 bytes), align: 1
  Segment part 34.            Intra module refs:   BT_rfcomm_close
    -------------------------------------------------------------------------
<CODE> 3 (was CODE)
  Relative segment, address: 000151EA - 00015221 (0x38 bytes), align: 1
  Segment part 48.
           ENTRY                   ADDRESS         REF BY
           =====                   =======         ======
           BT_rfcomm_accept        000151EA        spp_accept (spp)
               calls direct
               CSTACK = 00000000 ( 0000000C )
    -------------------------------------------------------------------------
<CODE> 3 (was CODE)
  Relative segment, address: 00014D22 - 00014D63 (0x42 bytes), align: 1
  Segment part 47.
           ENTRY                   ADDRESS         REF BY
           =====                   =======         ======
           BT_rfcomm_accept_cancel
                                   00014D22        BT_spp_connect (spp)
               calls direct
               CSTACK = 00000000 ( 00000008 )
    -------------------------------------------------------------------------
<CODE> 3 (was CODE)
  Relative segment, address: 0001688E - 00016893 (0x6 bytes), align: 1
  Segment part 38.            Intra module refs:   BT_rfcomm_close
                                                   BT_rfcomm_open
    -------------------------------------------------------------------------
<CODE> 3 (was CODE)
  Relative segment, address: 00016894 - 00016899 (0x6 bytes), align: 1
  Segment part 39.            Intra module refs:   Segment part 38
    -------------------------------------------------------------------------
<CODE> 3 (was CODE)
  Relative segment, address: 0001642E - 00016433 (0x6 bytes), align: 1
  Segment part 40.            Intra module refs:   BT_rfcomm_close
                                                   BT_rfcomm_open
    -------------------------------------------------------------------------
<CODE> 3 (was CODE)
  Relative segment, address: 00016434 - 0001643D (0xa bytes), align: 1
  Segment part 41.            Intra module refs:   BT_rfcomm_write
                                                   Segment part 40
    -------------------------------------------------------------------------
<CODE> 3 (was CODE)
  Relative segment, address: 000115DE - 0001161D (0x40 bytes), align: 1
  Segment part 44.
           ENTRY                   ADDRESS         REF BY
           =====                   =======         ======
           BT_rfcomm_close         000115DE        BT_spp_disconnect (spp)
               calls direct
               CSTACK = 00000000 ( 0000001C )
    -------------------------------------------------------------------------
<CODE> 3 (was CODE)
  Relative segment, address: 0001161E - 00011625 (0x8 bytes), align: 1
  Segment part 45.            Intra module refs:   BT_rfcomm_close
                                                   BT_rfcomm_open
    -------------------------------------------------------------------------
<CODE> 3 (was CODE)
  Relative segment, address: 00011626 - 0001168F (0x6a bytes), align: 1
  Segment part 46.
           ENTRY                   ADDRESS         REF BY
           =====                   =======         ======
           BT_rfcomm_open          00011626        BT_spp_connect (spp)
               calls direct
               CSTACK = 00000000 ( 0000001C )
    -------------------------------------------------------------------------
<CODE> 3 (was CODE)
  Relative segment, address: 00012698 - 00012727 (0x90 bytes), align: 1
  Segment part 43.
           ENTRY                   ADDRESS         REF BY
           =====                   =======         ======
           BT_rfcomm_write         00012698        BT_spp_send (spp)
               calls direct
               CSTACK = 00000000 ( 0000002A )
    -------------------------------------------------------------------------
<CODE> 1 (was CODE)
  Relative segment, address: E6C8 - E7E9 (0x122 bytes), align: 1
  Segment part 2.             Intra module refs:   BT_rfcomm_write
                                                   Segment part 31
                                                   Segment part 39
           ENTRY                   ADDRESS         REF BY
           =====                   =======         ======
           rfcomm_common_api_handler
                                   E6C8 
               calls direct
               CSTACK = 00000000 ( 00000028 )
    -------------------------------------------------------------------------
<CODE> 3 (was CODE)
  Relative segment, address: 00016970 - 00016979 (0xa bytes), align: 1
  Segment part 3.             Intra module refs:   rfcomm_common_api_handler

    -------------------------------------------------------------------------
  LIBRARY MODULE, NAME : rfcomm_bh

  SEGMENTS IN THE MODULE
  ======================
<CODE> 3 (was CODE)
  Relative segment, address: 00012DF6 - 00012E75 (0x80 bytes), align: 1
  Segment part 4.             Intra module refs:   rfcomm_open_bh
           ENTRY                   ADDRESS         REF BY
           =====                   =======         ======
           rfcomm_session_open     00012DF6 
               calls direct
               CSTACK = 00000000 ( 0000001C )
    -------------------------------------------------------------------------
<CODE> 3 (was CODE)
  Relative segment, address: 0001689A - 000168A5 (0xc bytes), align: 1
  Segment part 9.             Intra module refs:   rfcomm_close_bh
                                                   rfcomm_open_bh
    -------------------------------------------------------------------------
<CODE> 3 (was CODE)
  Relative segment, address: 00016B98 - 00016B9D (0x6 bytes), align: 1
  Segment part 11.            Intra module refs:   rfcomm_close_bh
                                                   rfcomm_open_bh
    -------------------------------------------------------------------------
<CODE> 3 (was CODE)
  Relative segment, address: 00016934 - 00016935 (0x2 bytes), align: 1
  Segment part 14.            Intra module refs:   rfcomm_open_bh
    -------------------------------------------------------------------------
<CODE> 3 (was CODE)
  Relative segment, address: 00016936 - 0001693D (0x8 bytes), align: 1
  Segment part 15.            Intra module refs:   Segment part 14
                                                   Segment part 25
    -------------------------------------------------------------------------
<CODE> 3 (was CODE)
  Relative segment, address: 00016B56 - 00016B5D (0x8 bytes), align: 1
  Segment part 16.            Intra module refs:   rfcomm_close_bh
    -------------------------------------------------------------------------
<CODE> 3 (was CODE)
  Relative segment, address: 00016716 - 00016723 (0xe bytes), align: 1
  Segment part 17.            Intra module refs:   rfcomm_close_bh
    -------------------------------------------------------------------------
<CODE> 3 (was CODE)
  Relative segment, address: 000164BE - 000164CD (0x10 bytes), align: 1
  Segment part 22.            Intra module refs:   Segment part 12
    -------------------------------------------------------------------------
<CODE> 3 (was CODE)
  Relative segment, address: 000164CE - 000164DD (0x10 bytes), align: 1
  Segment part 24.            Intra module refs:   rfcomm_open_bh
    -------------------------------------------------------------------------
<CODE> 3 (was CODE)
  Relative segment, address: 00016920 - 00016929 (0xa bytes), align: 1
  Segment part 25.            Intra module refs:   rfcomm_close_bh
    -------------------------------------------------------------------------
<CODE> 3 (was CODE)
  Relative segment, address: 0001690C - 00016915 (0xa bytes), align: 1
  Segment part 20.            Intra module refs:   rfcomm_open_bh
    -------------------------------------------------------------------------
<CODE> 3 (was CODE)
  Relative segment, address: 000168CA - 000168D5 (0xc bytes), align: 1
  Segment part 12.            Intra module refs:   rfcomm_close_bh
    -------------------------------------------------------------------------
<CODE> 3 (was CODE)
  Relative segment, address: 000106B8 - 00010785 (0xce bytes), align: 1
  Segment part 5.
           ENTRY                   ADDRESS         REF BY
           =====                   =======         ======
           rfcomm_open_bh          000106B8        BT_rfcomm_open (rfcomm_api)
               calls direct
               CSTACK = 00000000 ( 00000026 )
    -------------------------------------------------------------------------
<CODE> 3 (was CODE)
  Relative segment, address: 000164FE - 0001650D (0x10 bytes), align: 1
  Segment part 6.             Intra module refs:   rfcomm_open_bh
    -------------------------------------------------------------------------
<CODE> 3 (was CODE)
  Relative segment, address: 000140D0 - 00014129 (0x5a bytes), align: 1
  Segment part 3.
           ENTRY                   ADDRESS         REF BY
           =====                   =======         ======
           rfcomm_close_bh         000140D0        BT_rfcomm_close (rfcomm_api)
               calls direct
               CSTACK = 00000000 ( 00000014 )

    -------------------------------------------------------------------------
  LIBRARY MODULE, NAME : rfcomm_incoming

  SEGMENTS IN THE MODULE
  ======================
<CODE> 3 (was CODE)
  Relative segment, address: 00016B5E - 00016B65 (0x8 bytes), align: 1
  Segment part 25.            Intra module refs:   rfcomm_handle_rls
                                                   rfcomm_handle_rpn
                                                   rfcomm_l2ca_data_read_ind
    -------------------------------------------------------------------------
<CODE> 3 (was CODE)
  Relative segment, address: 0001667C - 00016689 (0xe bytes), align: 1
  Segment part 28.            Intra module refs:   rfcomm_handle_disc
                                                   rfcomm_handle_rpn
                                                   rfcomm_l2ca_data_read_ind
                                                   rfcomm_sabm_command_complete
    -------------------------------------------------------------------------
<CODE> 1 (was CODE)
  Relative segment, address: 8FFA - 92DF (0x2e6 bytes), align: 1
  Segment part 33.
           ENTRY                   ADDRESS         REF BY
           =====                   =======         ======
           rfcomm_l2ca_data_read_ind
                                   8FFA            rfcomm_bt_init (rfcomm_init)
               calls direct and indirect
               CSTACK = 00000000 ( 00000036 )
    -------------------------------------------------------------------------
<CODE> 3 (was CODE)
  Relative segment, address: 00016B92 - 00016B97 (0x6 bytes), align: 1
  Segment part 34.            Intra module refs:   rfcomm_l2ca_data_read_ind
    -------------------------------------------------------------------------
<CODE> 1 (was CODE)
  Relative segment, address: BF76 - C14F (0x1da bytes), align: 1
  Segment part 29.            Intra module refs:   rfcomm_l2ca_data_read_ind
           ENTRY                   ADDRESS         REF BY
           =====                   =======         ======
           rfcomm_handle_pn        BF76 
               calls direct
               CSTACK = 00000000 ( 0000001E )
    -------------------------------------------------------------------------
<CODE> 3 (was CODE)
  Relative segment, address: 0001656E - 0001657D (0x10 bytes), align: 1
  Segment part 30.            Intra module refs:   rfcomm_handle_pn
                                                   rfcomm_handle_rls
    -------------------------------------------------------------------------
<CODE> 3 (was CODE)
  Relative segment, address: 00016B66 - 00016B67 (0x2 bytes), align: 1
  Segment part 31.            Intra module refs:   rfcomm_handle_rpn
                                                   rfcomm_sabm_command_complete
    -------------------------------------------------------------------------
<CODE> 3 (was CODE)
  Relative segment, address: 00016B68 - 00016B6D (0x6 bytes), align: 1
  Segment part 32.            Intra module refs:   Segment part 31
                                                   rfcomm_handle_pn
                                                   rfcomm_handle_sabm
                                                   rfcomm_handle_test
    -------------------------------------------------------------------------
<CODE> 3 (was CODE)
  Relative segment, address: 00016916 - 0001691F (0xa bytes), align: 1
  Segment part 20.            Intra module refs:   Segment part 19
                                                   rfcomm_handle_nsc
                                                   rfcomm_handle_rpn
    -------------------------------------------------------------------------
<CODE> 1 (was CODE)
  Relative segment, address: CBA6 - CD49 (0x1a4 bytes), align: 1
  Segment part 22.            Intra module refs:   rfcomm_l2ca_data_read_ind
           ENTRY                   ADDRESS         REF BY
           =====                   =======         ======
           rfcomm_handle_rpn       CBA6 
               calls direct
               CSTACK = 00000000 ( 00000038 )
    -------------------------------------------------------------------------
<CODE> 3 (was CODE)
  Relative segment, address: 000168B2 - 000168BD (0xc bytes), align: 1
  Segment part 23.            Intra module refs:   rfcomm_handle_rpn
    -------------------------------------------------------------------------
<CODE> 3 (was CODE)
  Relative segment, address: 0001623A - 0001624B (0x12 bytes), align: 1
  Segment part 24.            Intra module refs:   rfcomm_handle_rpn
    -------------------------------------------------------------------------
<CODE> 3 (was CODE)
  Relative segment, address: 00016B76 - 00016B77 (0x2 bytes), align: 1
  Segment part 26.            Intra module refs:   rfcomm_handle_sabm
    -------------------------------------------------------------------------
<CODE> 3 (was CODE)
  Relative segment, address: 00016B78 - 00016B7D (0x6 bytes), align: 1
  Segment part 27.            Intra module refs:   Segment part 26
                                                   rfcomm_handle_rls
                                                   rfcomm_handle_rpn
    -------------------------------------------------------------------------
<CODE> 1 (was CODE)
  Relative segment, address: CEEA - D087 (0x19e bytes), align: 1
  Segment part 18.            Intra module refs:   rfcomm_l2ca_data_read_ind
           ENTRY                   ADDRESS         REF BY
           =====                   =======         ======
           rfcomm_handle_msc       CEEA 
               calls direct and indirect
               CSTACK = 00000000 ( 0000002E )
    -------------------------------------------------------------------------
<CODE> 3 (was CODE)
  Relative segment, address: 0001657E - 0001658D (0x10 bytes), align: 1
  Segment part 19.            Intra module refs:   rfcomm_handle_msc
                                                   rfcomm_handle_rls
    -------------------------------------------------------------------------
<CODE> 3 (was CODE)
  Relative segment, address: 00016636 - 00016643 (0xe bytes), align: 1
  Segment part 21.            Intra module refs:   rfcomm_handle_msc
                                                   rfcomm_handle_sabm
    -------------------------------------------------------------------------
<CODE> 3 (was CODE)
  Relative segment, address: 00011DE6 - 00011E13 (0x2e bytes), align: 1
  Segment part 14.            Intra module refs:   rfcomm_l2ca_data_read_ind
           ENTRY                   ADDRESS         REF BY
           =====                   =======         ======
           rfcomm_handle_fc_off    00011DE6 
               calls direct
               CSTACK = 00000000 ( 00000008 )
    -------------------------------------------------------------------------
<CODE> 3 (was CODE)
  Relative segment, address: 00011E14 - 00011E7B (0x68 bytes), align: 1
  Segment part 15.            Intra module refs:   rfcomm_l2ca_data_read_ind
           ENTRY                   ADDRESS         REF BY
           =====                   =======         ======
           rfcomm_handle_fc_on     00011E14 
               calls direct
               CSTACK = 00000000 ( 00000018 )
    -------------------------------------------------------------------------
<CODE> 3 (was CODE)
  Relative segment, address: 00011E7C - 00011E8B (0x10 bytes), align: 1
  Segment part 16.            Intra module refs:   rfcomm_handle_fc_off
                                                   rfcomm_handle_fc_on
                                                   rfcomm_handle_rls
    -------------------------------------------------------------------------
<CODE> 2 (was CODE)
  Relative segment, address: FC6E - FD59 (0xec bytes), align: 1
  Segment part 17.            Intra module refs:   rfcomm_l2ca_data_read_ind
           ENTRY                   ADDRESS         REF BY
           =====                   =======         ======
           rfcomm_handle_rls       FC6E 
               calls direct and indirect
               CSTACK = 00000000 ( 00000026 )
    -------------------------------------------------------------------------
<CODE> 3 (was CODE)
  Relative segment, address: 00014ABE - 00014B03 (0x46 bytes), align: 1
  Segment part 13.            Intra module refs:   rfcomm_l2ca_data_read_ind
           ENTRY                   ADDRESS         REF BY
           =====                   =======         ======
           rfcomm_handle_nsc       00014ABE 
               calls direct
               CSTACK = 00000000 ( 00000008 )
    -------------------------------------------------------------------------
<CODE> 2 (was CODE)
  Relative segment, address: F7B6 - F8AB (0xf6 bytes), align: 1
  Segment part 12.            Intra module refs:   rfcomm_l2ca_data_read_ind
           ENTRY                   ADDRESS         REF BY
           =====                   =======         ======
           rfcomm_handle_test      F7B6 
               calls direct
               CSTACK = 00000000 ( 00000044 )
    -------------------------------------------------------------------------
<CODE> 1 (was CODE)
  Relative segment, address: DE74 - DFAF (0x13c bytes), align: 1
  Segment part 9.             Intra module refs:   rfcomm_l2ca_data_read_ind
           ENTRY                   ADDRESS         REF BY
           =====                   =======         ======
           rfcomm_handle_sabm      DE74            rfcomm_handle_sabm_with_sm (rfcomm_sm)
                                                   rfcomm_sm_access_response (rfcomm_sm)
               calls direct
               CSTACK = 00000000 ( 00000028 )
    -------------------------------------------------------------------------
<CODE> 3 (was CODE)
  Relative segment, address: 000167BE - 000167CB (0xe bytes), align: 1
  Segment part 10.            Intra module refs:   rfcomm_handle_sabm
                                                   rfcomm_handle_ua
    -------------------------------------------------------------------------
<CODE> 3 (was CODE)
  Relative segment, address: 00015E86 - 00015E9F (0x1a bytes), align: 1
  Segment part 11.            Intra module refs:   rfcomm_handle_sabm
                                                   rfcomm_sabm_command_complete
    -------------------------------------------------------------------------
<CODE> 3 (was CODE)
  Relative segment, address: 00011B48 - 00011BF1 (0xaa bytes), align: 1
  Segment part 8.             Intra module refs:   rfcomm_l2ca_data_read_ind
           ENTRY                   ADDRESS         REF BY
           =====                   =======         ======
           rfcomm_handle_disc      00011B48 
               calls direct
               CSTACK = 00000000 ( 00000014 )
    -------------------------------------------------------------------------
<CODE> 3 (was CODE)
  Relative segment, address: 0001359A - 0001360D (0x74 bytes), align: 1
  Segment part 7.             Intra module refs:   rfcomm_l2ca_data_read_ind
           ENTRY                   ADDRESS         REF BY
           =====                   =======         ======
           rfcomm_handle_ua        0001359A 
               calls direct
               CSTACK = 00000000 ( 00000014 )
    -------------------------------------------------------------------------
<CODE> 3 (was CODE)
  Relative segment, address: 00015178 - 000151B1 (0x3a bytes), align: 1
  Segment part 6.             Intra module refs:   rfcomm_l2ca_data_read_ind
           ENTRY                   ADDRESS         REF BY
           =====                   =======         ======
           rfcomm_handle_dm        00015178 
               calls direct
               CSTACK = 00000000 ( 00000008 )
    -------------------------------------------------------------------------
<CODE> 3 (was CODE)
  Relative segment, address: 00010F50 - 0001100D (0xbe bytes), align: 1
  Segment part 3.             Intra module refs:   rfcomm_handle_ua
           ENTRY                   ADDRESS         REF BY
           =====                   =======         ======
           rfcomm_sabm_command_complete
                                   00010F50 
               calls direct
               CSTACK = 00000000 ( 0000002E )
    -------------------------------------------------------------------------
<CODE> 3 (was CODE)
  Relative segment, address: 000165BE - 000165C3 (0x6 bytes), align: 1
  Segment part 4.             Intra module refs:   rfcomm_disc_command_complete
                                                   rfcomm_sabm_command_complete
    -------------------------------------------------------------------------
<CODE> 3 (was CODE)
  Relative segment, address: 000165C4 - 000165CD (0xa bytes), align: 1
  Segment part 5.             Intra module refs:   Segment part 4
                                                   rfcomm_disc_command_complete
    -------------------------------------------------------------------------
<CODE> 3 (was CODE)
  Relative segment, address: 00013346 - 000133BF (0x7a bytes), align: 1
  Segment part 2.             Intra module refs:   rfcomm_handle_ua
           ENTRY                   ADDRESS         REF BY
           =====                   =======         ======
           rfcomm_disc_command_complete
                                   00013346 
               calls direct
               CSTACK = 00000000 ( 00000014 )

    -------------------------------------------------------------------------
  LIBRARY MODULE, NAME : rfcomm_init

  SEGMENTS IN THE MODULE
  ======================
DATA20_Z
  Relative segment, address: 30C4 - 30C7 (0x4 bytes), align: 1
  Segment part 2.             Intra module refs:   rfcomm_bt_init
                                                   rfcomm_init
           ENTRY                   ADDRESS         REF BY
           =====                   =======         ======
           rfcomm_mutex            30C4            Segment part 12 (rfcomm_l2cap)
                                                   Segment part 15 (rfcomm_l2cap)
                                                   Segment part 16 (rfcomm_bh)
                                                   Segment part 17 (rfcomm_bh)
                                                   Segment part 18 (rfcomm_l2cap)
                                                   Segment part 20 (rfcomm_api)
                                                   Segment part 20 (rfcomm_bh)
                                                   Segment part 28 (rfcomm_api)
                                                   rfcomm_command_timeout (rfcomm_outgoing)
                                                   rfcomm_common_api_handler (rfcomm_api)
                                                   rfcomm_context_signal (rfcomm_utils)
                                                   rfcomm_handle_msc (rfcomm_incoming)
                                                   rfcomm_handle_rls (rfcomm_incoming)
                                                   rfcomm_handle_sabm_with_sm (rfcomm_sm)
                                                   rfcomm_l2ca_config_ind (rfcomm_l2cap)
                                                   rfcomm_l2ca_data_read_ind (rfcomm_incoming)
                                                   rfcomm_reset_dlci (rfcomm_utils)
                                                   rfcomm_sm_access_response (rfcomm_sm)
                                                   rfcomm_transmit_data (rfcomm_write)
                                                   rfcomm_write_bh (rfcomm_write)
    -------------------------------------------------------------------------
DATA20_Z
  Relative segment, address: 30C8 - 30E7 (0x20 bytes), align: 1
  Segment part 3.             Intra module refs:   rfcomm_bt_init
           ENTRY                   ADDRESS         REF BY
           =====                   =======         ======
           rfcomm_session          30C8            Segment part 24 (rfcomm_bh)
                                                   Segment part 4 (rfcomm_incoming)
                                                   Segment part 5 (rfcomm_incoming)
                                                   Segment part 9 (rfcomm_bh)
                                                   rfcomm_add_session (rfcomm_utils)
                                                   rfcomm_command_timeout (rfcomm_outgoing)
                                                   rfcomm_del_session (rfcomm_utils)
                                                   rfcomm_disc_command_complete (rfcomm_incoming)
                                                   rfcomm_get_session_bd_addr (rfcomm_utils)
                                                   rfcomm_get_session_lcid (rfcomm_utils)
                                                   rfcomm_handle_disc (rfcomm_incoming)
                                                   rfcomm_handle_dm (rfcomm_incoming)
                                                   rfcomm_handle_fc_off (rfcomm_incoming)
                                                   rfcomm_handle_fc_on (rfcomm_incoming)
                                                   rfcomm_handle_msc (rfcomm_incoming)
                                                   rfcomm_handle_pn (rfcomm_incoming)
                                                   rfcomm_handle_rls (rfcomm_incoming)
                                                   rfcomm_handle_sabm (rfcomm_incoming)
                                                   rfcomm_handle_sabm_with_sm (rfcomm_sm)
                                                   rfcomm_handle_ua (rfcomm_incoming)
                                                   rfcomm_l2ca_config_ind (rfcomm_l2cap)
                                                   rfcomm_l2ca_connect_cnf (rfcomm_l2cap)
                                                   rfcomm_l2ca_connect_ind (rfcomm_l2cap)
                                                   rfcomm_l2ca_data_read_ind (rfcomm_incoming)
                                                   rfcomm_l2ca_disconnect_cnf (rfcomm_l2cap)
                                                   rfcomm_l2cap_config_complete (rfcomm_l2cap)
                                                   rfcomm_reset_dlci (rfcomm_utils)
                                                   rfcomm_sabm_command_complete (rfcomm_incoming)
                                                   rfcomm_send_credits (rfcomm_write)
                                                   rfcomm_send_mode_command (rfcomm_outgoing)
                                                   rfcomm_send_mode_frame (rfcomm_outgoing)
                                                   rfcomm_send_mux_command (rfcomm_outgoing)
                                                   rfcomm_send_uih (rfcomm_outgoing)
                                                   rfcomm_session_open (rfcomm_bh)
                                                   rfcomm_transmit_data (rfcomm_write)
                                                   rfcomm_write_bh (rfcomm_write)
    -------------------------------------------------------------------------
DATA20_Z
  Relative segment, address: 30E8 - 313B (0x54 bytes), align: 1
  Segment part 4.             Intra module refs:   rfcomm_bt_init
           ENTRY                   ADDRESS         REF BY
           =====                   =======         ======
           rfcomm_dlci             30E8            Segment part 12 (rfcomm_bh)
                                                   Segment part 19 (rfcomm_utils)
                                                   rfcomm_add_dlci (rfcomm_utils)
                                                   rfcomm_del_session (rfcomm_utils)
                                                   rfcomm_get_local_rpn (rfcomm_utils)
                                                   rfcomm_handle_disc (rfcomm_incoming)
                                                   rfcomm_handle_fc_on (rfcomm_incoming)
                                                   rfcomm_handle_msc (rfcomm_incoming)
                                                   rfcomm_handle_pn (rfcomm_incoming)
                                                   rfcomm_handle_rls (rfcomm_incoming)
                                                   rfcomm_handle_rpn (rfcomm_incoming)
                                                   rfcomm_handle_sabm (rfcomm_incoming)
                                                   rfcomm_handle_ua (rfcomm_incoming)
                                                   rfcomm_l2ca_data_read_ind (rfcomm_incoming)
                                                   rfcomm_open_bh (rfcomm_bh)
                                                   rfcomm_reset_dlci (rfcomm_utils)
                                                   rfcomm_reset_dlci_params (rfcomm_utils)
                                                   rfcomm_sabm_command_complete (rfcomm_incoming)
                                                   rfcomm_search_dlci (rfcomm_utils)
                                                   rfcomm_send_credits (rfcomm_write)
                                                   rfcomm_send_mode_command (rfcomm_outgoing)
                                                   rfcomm_set_local_rpn (rfcomm_utils)
                                                   rfcomm_transmit_data (rfcomm_write)
                                                   rfcomm_write_bh (rfcomm_write)
    -------------------------------------------------------------------------
DATA20_Z
  Relative segment, address: 3FDE - 3FE3 (0x6 bytes), align: 0
  Segment part 5.             Intra module refs:   rfcomm_bt_init
           ENTRY                   ADDRESS         REF BY
           =====                   =======         ======
           rfcomm_rpn              3FDE            Segment part 18 (rfcomm_utils)
                                                   Segment part 19 (rfcomm_utils)
                                                   rfcomm_get_local_rpn (rfcomm_utils)
                                                   rfcomm_reset_dlci_params (rfcomm_utils)
                                                   rfcomm_set_local_rpn (rfcomm_utils)
    -------------------------------------------------------------------------
DATA20_Z
  Relative segment, address: 313C - 317B (0x40 bytes), align: 1
  Segment part 6.             Intra module refs:   rfcomm_bt_init
           ENTRY                   ADDRESS         REF BY
           =====                   =======         ======
           rfcomm_context          313C            rfcomm_common_api_handler (rfcomm_api)
                                                   rfcomm_context_signal (rfcomm_utils)
                                                   rfcomm_del_session (rfcomm_utils)
                                                   rfcomm_disc_command_complete (rfcomm_incoming)
                                                   rfcomm_free_context (rfcomm_utils)
                                                   rfcomm_handle_msc (rfcomm_incoming)
                                                   rfcomm_handle_nsc (rfcomm_incoming)
                                                   rfcomm_handle_pn (rfcomm_incoming)
                                                   rfcomm_handle_rpn (rfcomm_incoming)
                                                   rfcomm_handle_sabm (rfcomm_incoming)
                                                   rfcomm_handle_test (rfcomm_incoming)
                                                   rfcomm_open_bh (rfcomm_bh)
                                                   rfcomm_reset_dlci (rfcomm_utils)
                                                   rfcomm_sabm_command_complete (rfcomm_incoming)
                                                   rfcomm_search_accept (rfcomm_utils)
                                                   rfcomm_search_command (rfcomm_utils)
                                                   rfcomm_send_mode_command (rfcomm_outgoing)
                                                   rfcomm_send_mux_command (rfcomm_outgoing)
                                                   rfcomm_session_open (rfcomm_bh)
    -------------------------------------------------------------------------
DATA20_Z
  Relative segment, address: 317C - 317D (0x2 bytes), align: 1
  Segment part 7.             Intra module refs:   rfcomm_bt_init
           ENTRY                   ADDRESS         REF BY
           =====                   =======         ======
           rfcomm_ack_timeout      317C            Segment part 10 (rfcomm_outgoing)
    -------------------------------------------------------------------------
DATA20_Z
  Relative segment, address: 317E - 317F (0x2 bytes), align: 1
  Segment part 8.             Intra module refs:   rfcomm_bt_init
           ENTRY                   ADDRESS         REF BY
           =====                   =======         ======
           rfcomm_default_l2cap_mtu
                                   317E            Segment part 14 (rfcomm_l2cap)
                                                   rfcomm_handle_pn (rfcomm_incoming)
                                                   rfcomm_send_mux_command (rfcomm_outgoing)
    -------------------------------------------------------------------------
DATA20_C
  Relative segment, address: 000202FF - 000203FE (0x100 bytes), align: 0
  Segment part 9.             Intra module refs:   rfcomm_calculate_fcs
                                                   rfcomm_check_fcs
    -------------------------------------------------------------------------
<CODE> 3 (was CODE)
  Relative segment, address: 00016952 - 0001695B (0xa bytes), align: 1
  Segment part 14.
           ENTRY                   ADDRESS         REF BY
           =====                   =======         ======
           rfcomm_init             00016952        ethermind_init_upper_pl (BT_common_pl)
               calls direct
               CSTACK = 00000000 ( 00000004 )
    -------------------------------------------------------------------------
<CODE> 1 (was CODE)
  Relative segment, address: D68A - D7E7 (0x15e bytes), align: 1
  Segment part 13.
           ENTRY                   ADDRESS         REF BY
           =====                   =======         ======
           rfcomm_bt_init          D68A            bluetooth_on_upper_pl (BT_common_pl)
               calls direct
               CSTACK = 00000000 ( 0000002E )
    -------------------------------------------------------------------------
<CODE> 3 (was CODE)
  Relative segment, address: 00015B26 - 00015B47 (0x22 bytes), align: 1
  Segment part 11.
           ENTRY                   ADDRESS         REF BY
           =====                   =======         ======
           rfcomm_calculate_fcs    00015B26        rfcomm_send_credits (rfcomm_write)
                                                   rfcomm_send_mode_frame (rfcomm_outgoing)
                                                   rfcomm_send_uih (rfcomm_outgoing)
               CSTACK = 00000000 ( 00000008 )
    -------------------------------------------------------------------------
<CODE> 3 (was CODE)
  Relative segment, address: 00015572 - 000155A1 (0x30 bytes), align: 1
  Segment part 10.
           ENTRY                   ADDRESS         REF BY
           =====                   =======         ======
           rfcomm_check_fcs        00015572        rfcomm_l2ca_data_read_ind (rfcomm_incoming)
               CSTACK = 00000000 ( 00000008 )

    -------------------------------------------------------------------------
  LIBRARY MODULE, NAME : rfcomm_l2cap

  SEGMENTS IN THE MODULE
  ======================
<CODE> 1 (was CODE)
  Relative segment, address: B58C - B627 (0x9c bytes), align: 1
  Segment part 4.
           ENTRY                   ADDRESS         REF BY
           =====                   =======         ======
           rfcomm_l2ca_config_ind
                                   B58C            rfcomm_bt_init (rfcomm_init)
               calls direct
               CSTACK = 00000000 ( 0000003A )
    -------------------------------------------------------------------------
<CODE> 1 (was CODE)
  Relative segment, address: B628 - B631 (0xa bytes), align: 1
  Segment part 5.             Intra module refs:   rfcomm_l2ca_config_cnf
                                                   rfcomm_l2ca_config_ind
                                                   rfcomm_l2ca_disconnect_cnf
    -------------------------------------------------------------------------
<CODE> 1 (was CODE)
  Relative segment, address: B632 - B637 (0x6 bytes), align: 1
  Segment part 6.             Intra module refs:   rfcomm_l2ca_config_ind
    -------------------------------------------------------------------------
<CODE> 1 (was CODE)
  Relative segment, address: B638 - B63F (0x8 bytes), align: 1
  Segment part 7.             Intra module refs:   Segment part 15
                                                   Segment part 6
    -------------------------------------------------------------------------
<CODE> 1 (was CODE)
  Relative segment, address: B640 - B645 (0x6 bytes), align: 1
  Segment part 8.             Intra module refs:   Segment part 6
                                                   rfcomm_l2ca_config_ind
                                                   rfcomm_l2ca_connect_cnf
    -------------------------------------------------------------------------
<CODE> 1 (was CODE)
  Relative segment, address: B646 - B64D (0x8 bytes), align: 1
  Segment part 9.             Intra module refs:   rfcomm_l2ca_config_ind
                                                   rfcomm_l2ca_connect_cnf
    -------------------------------------------------------------------------
<CODE> 1 (was CODE)
  Relative segment, address: B64E - B69B (0x4e bytes), align: 1
  Segment part 10.
           ENTRY                   ADDRESS         REF BY
           =====                   =======         ======
           rfcomm_l2ca_disconnect_cnf
                                   B64E            rfcomm_bt_init (rfcomm_init)
               calls direct
               CSTACK = 00000000 ( 00000008 )
    -------------------------------------------------------------------------
<CODE> 1 (was CODE)
  Relative segment, address: B69C - B6C3 (0x28 bytes), align: 1
  Segment part 11.
           ENTRY                   ADDRESS         REF BY
           =====                   =======         ======
           rfcomm_l2ca_disconnect_ind
                                   B69C            rfcomm_bt_init (rfcomm_init)
               calls direct
               CSTACK = 00000000 ( 00000008 )
    -------------------------------------------------------------------------
<CODE> 1 (was CODE)
  Relative segment, address: B6C4 - B6D9 (0x16 bytes), align: 1
  Segment part 12.            Intra module refs:   rfcomm_l2ca_disconnect_cnf
                                                   rfcomm_l2ca_disconnect_ind
    -------------------------------------------------------------------------
<CODE> 1 (was CODE)
  Relative segment, address: B6DA - B77F (0xa6 bytes), align: 1
  Segment part 13.
           ENTRY                   ADDRESS         REF BY
           =====                   =======         ======
           rfcomm_l2ca_connect_cnf
                                   B6DA            rfcomm_bt_init (rfcomm_init)
               calls direct
               CSTACK = 00000000 ( 0000003A )
    -------------------------------------------------------------------------
<CODE> 1 (was CODE)
  Relative segment, address: B780 - B791 (0x12 bytes), align: 1
  Segment part 14.            Intra module refs:   rfcomm_l2ca_config_ind
                                                   rfcomm_l2ca_connect_cnf
    -------------------------------------------------------------------------
<CODE> 1 (was CODE)
  Relative segment, address: B792 - B797 (0x6 bytes), align: 1
  Segment part 15.            Intra module refs:   rfcomm_l2ca_config_cnf
                                                   rfcomm_l2ca_connect_cnf
                                                   rfcomm_l2ca_connect_ind
    -------------------------------------------------------------------------
<CODE> 3 (was CODE)
  Relative segment, address: 0001315E - 000131D7 (0x7a bytes), align: 1
  Segment part 16.
           ENTRY                   ADDRESS         REF BY
           =====                   =======         ======
           rfcomm_l2ca_connect_ind
                                   0001315E        rfcomm_bt_init (rfcomm_init)
               calls direct
               CSTACK = 00000000 ( 00000014 )
    -------------------------------------------------------------------------
<CODE> 3 (was CODE)
  Relative segment, address: 00016660 - 00016661 (0x2 bytes), align: 1
  Segment part 17.            Intra module refs:   rfcomm_l2ca_disconnect_cnf
                                                   rfcomm_l2ca_disconnect_ind
    -------------------------------------------------------------------------
<CODE> 3 (was CODE)
  Relative segment, address: 00016662 - 0001666D (0xc bytes), align: 1
  Segment part 18.            Intra module refs:   Segment part 17
                                                   rfcomm_l2ca_config_cnf
                                                   rfcomm_l2ca_connect_cnf
                                                   rfcomm_l2ca_connect_ind
    -------------------------------------------------------------------------
<CODE> 3 (was CODE)
  Relative segment, address: 00014334 - 00014387 (0x54 bytes), align: 1
  Segment part 3.
           ENTRY                   ADDRESS         REF BY
           =====                   =======         ======
           rfcomm_l2ca_config_cnf
                                   00014334        rfcomm_bt_init (rfcomm_init)
               calls direct
               CSTACK = 00000000 ( 00000014 )
    -------------------------------------------------------------------------
<CODE> 3 (was CODE)
  Relative segment, address: 000136F0 - 0001375D (0x6e bytes), align: 1
  Segment part 2.             Intra module refs:   rfcomm_l2ca_config_cnf
                                                   rfcomm_l2ca_config_ind
           ENTRY                   ADDRESS         REF BY
           =====                   =======         ======
           rfcomm_l2cap_config_complete
                                   000136F0 
               calls direct
               CSTACK = 00000000 ( 0000000C )

    -------------------------------------------------------------------------
  LIBRARY MODULE, NAME : rfcomm_outgoing

  SEGMENTS IN THE MODULE
  ======================
<CODE> 1 (was CODE)
  Relative segment, address: 8CFC - 8EA1 (0x1a6 bytes), align: 1
  Segment part 6.
           ENTRY                   ADDRESS         REF BY
           =====                   =======         ======
           rfcomm_send_mux_command
                                   8CFC            rfcomm_handle_sabm (rfcomm_incoming)
                                                   rfcomm_open_bh (rfcomm_bh)
                                                   rfcomm_sabm_command_complete (rfcomm_incoming)
               calls direct
               CSTACK = 00000000 ( 00000028 )
    -------------------------------------------------------------------------
<CODE> 1 (was CODE)
  Relative segment, address: 8EA2 - 8EA7 (0x6 bytes), align: 1
  Segment part 7.             Intra module refs:   rfcomm_send_mode_command
                                                   rfcomm_send_mux_command
    -------------------------------------------------------------------------
<CODE> 1 (was CODE)
  Relative segment, address: 8EA8 - 8F23 (0x7c bytes), align: 1
  Segment part 8.             Intra module refs:   rfcomm_send_mode_command
           ENTRY                   ADDRESS         REF BY
           =====                   =======         ======
           rfcomm_send_mode_frame
                                   8EA8            Segment part 27 (rfcomm_incoming)
                                                   rfcomm_handle_disc (rfcomm_incoming)
                                                   rfcomm_handle_msc (rfcomm_incoming)
                                                   rfcomm_handle_pn (rfcomm_incoming)
                                                   rfcomm_handle_sabm (rfcomm_incoming)
                                                   rfcomm_handle_sabm_with_sm (rfcomm_sm)
                                                   rfcomm_sm_access_response (rfcomm_sm)
               calls direct
               CSTACK = 00000000 ( 00000016 )
    -------------------------------------------------------------------------
<CODE> 1 (was CODE)
  Relative segment, address: 8F24 - 8FF9 (0xd6 bytes), align: 1
  Segment part 9.
           ENTRY                   ADDRESS         REF BY
           =====                   =======         ======
           rfcomm_send_mode_command
                                   8F24            rfcomm_close_bh (rfcomm_bh)
                                                   rfcomm_disc_command_complete (rfcomm_incoming)
                                                   rfcomm_handle_pn (rfcomm_incoming)
                                                   rfcomm_l2cap_config_complete (rfcomm_l2cap)
               calls direct
               CSTACK = 00000000 ( 00000026 )
    -------------------------------------------------------------------------
<CODE> 3 (was CODE)
  Relative segment, address: 000162DC - 000162ED (0x12 bytes), align: 1
  Segment part 10.            Intra module refs:   rfcomm_send_mode_command
                                                   rfcomm_send_mux_command
    -------------------------------------------------------------------------
<CODE> 3 (was CODE)
  Relative segment, address: 00011D40 - 00011DE5 (0xa6 bytes), align: 1
  Segment part 3.             Intra module refs:   rfcomm_send_mux_frame
           ENTRY                   ADDRESS         REF BY
           =====                   =======         ======
           rfcomm_send_uih         00011D40        rfcomm_handle_test (rfcomm_incoming)
                                                   rfcomm_transmit_data (rfcomm_write)
               calls direct
               CSTACK = 00000000 ( 0000001E )
    -------------------------------------------------------------------------
<CODE> 1 (was CODE)
  Relative segment, address: A7E6 - AA3D (0x258 bytes), align: 1
  Segment part 4.             Intra module refs:   rfcomm_send_mux_command
           ENTRY                   ADDRESS         REF BY
           =====                   =======         ======
           rfcomm_send_mux_frame   A7E6            Segment part 25 (rfcomm_incoming)
                                                   rfcomm_handle_fc_off (rfcomm_incoming)
                                                   rfcomm_handle_fc_on (rfcomm_incoming)
                                                   rfcomm_handle_msc (rfcomm_incoming)
                                                   rfcomm_handle_pn (rfcomm_incoming)
               calls direct
               CSTACK = 00000000 ( 0000004C )
    -------------------------------------------------------------------------
<CODE> 3 (was CODE)
  Relative segment, address: 000161EA - 000161FD (0x14 bytes), align: 1
  Segment part 5.             Intra module refs:   rfcomm_send_mux_frame
    -------------------------------------------------------------------------
<CODE> 3 (was CODE)
  Relative segment, address: 00014916 - 0001495D (0x48 bytes), align: 1
  Segment part 2.             Intra module refs:   Segment part 10
           ENTRY                   ADDRESS         REF BY
           =====                   =======         ======
           rfcomm_command_timeout
                                   00014916 
               calls direct
               CSTACK = 00000000 ( 00000008 )

    -------------------------------------------------------------------------
  LIBRARY MODULE, NAME : rfcomm_sm

  SEGMENTS IN THE MODULE
  ======================
<CODE> 1 (was CODE)
  Relative segment, address: F492 - F4FF (0x6e bytes), align: 1
  Segment part 3.
           ENTRY                   ADDRESS         REF BY
           =====                   =======         ======
           rfcomm_handle_sabm_with_sm
                                   F492            rfcomm_l2ca_data_read_ind (rfcomm_incoming)
               calls direct
               CSTACK = 00000000 ( 00000018 )
    -------------------------------------------------------------------------
<CODE> 3 (was CODE)
  Relative segment, address: 00013EA0 - 00013EFD (0x5e bytes), align: 1
  Segment part 2.
           ENTRY                   ADDRESS         REF BY
           =====                   =======         ======
           rfcomm_sm_access_response
                                   00013EA0        sm_state_machine (sm_core)
               calls direct
               CSTACK = 00000000 ( 00000014 )

    -------------------------------------------------------------------------
  LIBRARY MODULE, NAME : rfcomm_utils

  SEGMENTS IN THE MODULE
  ======================
<CODE> 3 (was CODE)
  Relative segment, address: 00010368 - 0001043D (0xd6 bytes), align: 1
  Segment part 17.
           ENTRY                   ADDRESS         REF BY
           =====                   =======         ======
           rfcomm_set_local_rpn    00010368        Segment part 23 (rfcomm_incoming)
               CSTACK = 00000000 ( 0000000C )
    -------------------------------------------------------------------------
<CODE> 3 (was CODE)
  Relative segment, address: 0001653E - 0001654D (0x10 bytes), align: 1
  Segment part 18.            Intra module refs:   rfcomm_reset_dlci_params
                                                   rfcomm_set_local_rpn
    -------------------------------------------------------------------------
<CODE> 3 (was CODE)
  Relative segment, address: 00015CA4 - 00015CC1 (0x1e bytes), align: 1
  Segment part 19.            Intra module refs:   rfcomm_reset_dlci_params
                                                   rfcomm_set_local_rpn
    -------------------------------------------------------------------------
<CODE> 3 (was CODE)
  Relative segment, address: 0001652E - 0001653D (0x10 bytes), align: 1
  Segment part 20.            Intra module refs:   rfcomm_reset_dlci_params
                                                   rfcomm_set_local_rpn
    -------------------------------------------------------------------------
<CODE> 3 (was CODE)
  Relative segment, address: 0001211A - 000121BB (0xa2 bytes), align: 1
  Segment part 16.
           ENTRY                   ADDRESS         REF BY
           =====                   =======         ======
           rfcomm_get_local_rpn    0001211A        Segment part 24 (rfcomm_incoming)
                                                   rfcomm_handle_rpn (rfcomm_incoming)
               CSTACK = 00000000 ( 00000008 )
    -------------------------------------------------------------------------
<CODE> 3 (was CODE)
  Relative segment, address: 0001375E - 000137CB (0x6e bytes), align: 1
  Segment part 14.
           ENTRY                   ADDRESS         REF BY
           =====                   =======         ======
           rfcomm_copy_accepted_port_settings
                                   0001375E        Segment part 23 (rfcomm_incoming)
               CSTACK = 00000000 ( 00000004 )
    -------------------------------------------------------------------------
<CODE> 3 (was CODE)
  Relative segment, address: 00011A9E - 00011B47 (0xaa bytes), align: 1
  Segment part 13.
           ENTRY                   ADDRESS         REF BY
           =====                   =======         ======
           rfcomm_add_session      00011A9E        rfcomm_l2ca_connect_ind (rfcomm_l2cap)
                                                   rfcomm_session_open (rfcomm_bh)
               calls direct
               CSTACK = 00000000 ( 0000001C )
    -------------------------------------------------------------------------
<CODE> 3 (was CODE)
  Relative segment, address: 00014DA6 - 00014DE7 (0x42 bytes), align: 1
  Segment part 12.
           ENTRY                   ADDRESS         REF BY
           =====                   =======         ======
           rfcomm_get_session_bd_addr
                                   00014DA6        Segment part 15 (rfcomm_bh)
                                                   rfcomm_command_timeout (rfcomm_outgoing)
                                                   rfcomm_l2ca_connect_cnf (rfcomm_l2cap)
                                                   rfcomm_sm_access_response (rfcomm_sm)
                                                   rfcomm_write_bh (rfcomm_write)
               calls direct
               CSTACK = 00000000 ( 00000014 )
    -------------------------------------------------------------------------
<CODE> 3 (was CODE)
  Relative segment, address: 000157CA - 000157F5 (0x2c bytes), align: 1
  Segment part 11.
           ENTRY                   ADDRESS         REF BY
           =====                   =======         ======
           rfcomm_get_session_lcid
                                   000157CA        Segment part 5 (rfcomm_l2cap)
                                                   rfcomm_l2ca_data_read_ind (rfcomm_incoming)
                                                   rfcomm_l2ca_disconnect_ind (rfcomm_l2cap)
               CSTACK = 00000000 ( 00000004 )
    -------------------------------------------------------------------------
<CODE> 3 (was CODE)
  Relative segment, address: 000119F2 - 00011A9D (0xac bytes), align: 1
  Segment part 10.
           ENTRY                   ADDRESS         REF BY
           =====                   =======         ======
           rfcomm_del_session      000119F2        rfcomm_command_timeout (rfcomm_outgoing)
                                                   rfcomm_disc_command_complete (rfcomm_incoming)
                                                   rfcomm_handle_dm (rfcomm_incoming)
                                                   rfcomm_l2ca_config_cnf (rfcomm_l2cap)
                                                   rfcomm_l2ca_connect_cnf (rfcomm_l2cap)
                                                   rfcomm_l2ca_connect_ind (rfcomm_l2cap)
                                                   rfcomm_l2ca_disconnect_cnf (rfcomm_l2cap)
                                                   rfcomm_l2ca_disconnect_ind (rfcomm_l2cap)
                                                   rfcomm_l2cap_config_complete (rfcomm_l2cap)
                                                   rfcomm_sabm_command_complete (rfcomm_incoming)
                                                   rfcomm_session_open (rfcomm_bh)
               calls direct
               CSTACK = 00000000 ( 0000001C )
    -------------------------------------------------------------------------
<CODE> 3 (was CODE)
  Relative segment, address: 00013680 - 000136EF (0x70 bytes), align: 1
  Segment part 9.
           ENTRY                   ADDRESS         REF BY
           =====                   =======         ======
           rfcomm_add_dlci         00013680        rfcomm_handle_pn (rfcomm_incoming)
                                                   rfcomm_handle_rpn (rfcomm_incoming)
                                                   rfcomm_handle_sabm (rfcomm_incoming)
                                                   rfcomm_open_bh (rfcomm_bh)
               CSTACK = 00000000 ( 00000014 )
    -------------------------------------------------------------------------
<CODE> 3 (was CODE)
  Relative segment, address: 00015512 - 00015541 (0x30 bytes), align: 1
  Segment part 8.
           ENTRY                   ADDRESS         REF BY
           =====                   =======         ======
           rfcomm_search_dlci      00015512        rfcomm_close_bh (rfcomm_bh)
                                                   rfcomm_handle_msc (rfcomm_incoming)
                                                   rfcomm_handle_pn (rfcomm_incoming)
                                                   rfcomm_handle_rls (rfcomm_incoming)
                                                   rfcomm_handle_rpn (rfcomm_incoming)
                                                   rfcomm_l2ca_data_read_ind (rfcomm_incoming)
                                                   rfcomm_sabm_command_complete (rfcomm_incoming)
                                                   rfcomm_send_mode_command (rfcomm_outgoing)
                                                   rfcomm_sm_access_response (rfcomm_sm)
                                                   rfcomm_write_bh (rfcomm_write)
               CSTACK = 00000000 ( 00000008 )
    -------------------------------------------------------------------------
<CODE> 3 (was CODE)
  Relative segment, address: 00011946 - 000119F1 (0xac bytes), align: 1
  Segment part 6.             Intra module refs:   rfcomm_reset_dlci
           ENTRY                   ADDRESS         REF BY
           =====                   =======         ======
           rfcomm_reset_dlci_params
                                   00011946        rfcomm_bt_init (rfcomm_init)
                                                   rfcomm_disc_command_complete (rfcomm_incoming)
               CSTACK = 00000000 ( 00000004 )
    -------------------------------------------------------------------------
<CODE> 2 (was CODE)
  Relative segment, address: FE46 - FF31 (0xec bytes), align: 1
  Segment part 7.             Intra module refs:   rfcomm_del_session
           ENTRY                   ADDRESS         REF BY
           =====                   =======         ======
           rfcomm_reset_dlci       FE46            rfcomm_handle_disc (rfcomm_incoming)
                                                   rfcomm_handle_dm (rfcomm_incoming)
                                                   rfcomm_open_bh (rfcomm_bh)
                                                   rfcomm_sabm_command_complete (rfcomm_incoming)
               calls direct and indirect
               CSTACK = 00000000 ( 0000002A )
    -------------------------------------------------------------------------
<CODE> 3 (was CODE)
  Relative segment, address: 0001568C - 000156B9 (0x2e bytes), align: 1
  Segment part 5.
           ENTRY                   ADDRESS         REF BY
           =====                   =======         ======
           rfcomm_search_accept    0001568C        BT_rfcomm_accept_cancel (rfcomm_api)
                                                   rfcomm_handle_sabm (rfcomm_incoming)
               CSTACK = 00000000 ( 00000004 )
    -------------------------------------------------------------------------
<CODE> 3 (was CODE)
  Relative segment, address: 00012C70 - 00012CF1 (0x82 bytes), align: 1
  Segment part 3.             Intra module refs:   rfcomm_context_signal
           ENTRY                   ADDRESS         REF BY
           =====                   =======         ======
           rfcomm_free_context     00012C70        rfcomm_common_api_handler (rfcomm_api)
               calls direct
               CSTACK = 00000000 ( 00000008 )
    -------------------------------------------------------------------------
<CODE> 3 (was CODE)
  Relative segment, address: 0001306A - 000130E3 (0x7a bytes), align: 1
  Segment part 4.             Intra module refs:   rfcomm_del_session
                                                   rfcomm_reset_dlci
           ENTRY                   ADDRESS         REF BY
           =====                   =======         ======
           rfcomm_context_signal   0001306A        BT_rfcomm_accept_cancel (rfcomm_api)
                                                   Segment part 11 (rfcomm_bh)
                                                   Segment part 16 (rfcomm_incoming)
                                                   rfcomm_disc_command_complete (rfcomm_incoming)
                                                   rfcomm_handle_msc (rfcomm_incoming)
                                                   rfcomm_handle_nsc (rfcomm_incoming)
                                                   rfcomm_handle_pn (rfcomm_incoming)
                                                   rfcomm_handle_rpn (rfcomm_incoming)
                                                   rfcomm_handle_test (rfcomm_incoming)
                                                   rfcomm_l2ca_disconnect_cnf (rfcomm_l2cap)
                                                   rfcomm_sabm_command_complete (rfcomm_incoming)
               calls direct and indirect
               CSTACK = 00000000 ( 00000022 )
    -------------------------------------------------------------------------
<CODE> 3 (was CODE)
  Relative segment, address: 00013CB8 - 00013D1B (0x64 bytes), align: 1
  Segment part 2.
           ENTRY                   ADDRESS         REF BY
           =====                   =======         ======
           rfcomm_search_command   00013CB8        Segment part 16 (rfcomm_incoming)
                                                   rfcomm_handle_msc (rfcomm_incoming)
                                                   rfcomm_handle_pn (rfcomm_incoming)
                                                   rfcomm_handle_rpn (rfcomm_incoming)
                                                   rfcomm_handle_test (rfcomm_incoming)
                                                   rfcomm_handle_ua (rfcomm_incoming)
                                                   rfcomm_l2ca_disconnect_cnf (rfcomm_l2cap)
                                                   rfcomm_l2cap_config_complete (rfcomm_l2cap)
               calls direct
               CSTACK = 00000000 ( 00000014 )

    -------------------------------------------------------------------------
  LIBRARY MODULE, NAME : rfcomm_write

  SEGMENTS IN THE MODULE
  ======================
<CODE> 3 (was CODE)
  Relative segment, address: 000101B8 - 0001028F (0xd8 bytes), align: 1
  Segment part 5.
           ENTRY                   ADDRESS         REF BY
           =====                   =======         ======
           rfcomm_write_bh         000101B8        BT_rfcomm_write (rfcomm_api)
               calls direct and indirect
               CSTACK = 00000000 ( 0000001E )
    -------------------------------------------------------------------------
<CODE> 3 (was CODE)
  Relative segment, address: 0001697A - 00016983 (0xa bytes), align: 1
  Segment part 6.             Intra module refs:   rfcomm_write_bh
    -------------------------------------------------------------------------
<CODE> 1 (was CODE)
  Relative segment, address: C150 - C321 (0x1d2 bytes), align: 1
  Segment part 3.             Intra module refs:   rfcomm_write_bh
           ENTRY                   ADDRESS         REF BY
           =====                   =======         ======
           rfcomm_transmit_data    C150            rfcomm_handle_fc_on (rfcomm_incoming)
                                                   rfcomm_handle_msc (rfcomm_incoming)
                                                   rfcomm_l2ca_data_read_ind (rfcomm_incoming)
               calls direct and indirect
               CSTACK = 00000000 ( 00000064 )
    -------------------------------------------------------------------------
<CODE> 3 (was CODE)
  Relative segment, address: 0001645E - 0001646D (0x10 bytes), align: 1
  Segment part 4.             Intra module refs:   rfcomm_send_credits
                                                   rfcomm_transmit_data
    -------------------------------------------------------------------------
<CODE> 3 (was CODE)
  Relative segment, address: 00012604 - 00012697 (0x94 bytes), align: 1
  Segment part 2.
           ENTRY                   ADDRESS         REF BY
           =====                   =======         ======
           rfcomm_send_credits     00012604        rfcomm_handle_msc (rfcomm_incoming)
                                                   rfcomm_l2ca_data_read_ind (rfcomm_incoming)
               calls direct
               CSTACK = 00000000 ( 00000020 )

    -------------------------------------------------------------------------
  LIBRARY MODULE, NAME : sdp_api

  SEGMENTS IN THE MODULE
  ======================
<CODE> 3 (was CODE)
  Relative segment, address: 00014A32 - 00014A4D (0x1c bytes), align: 1
  Segment part 15.
           ENTRY                   ADDRESS         REF BY
           =====                   =======         ======
           BT_sdp_close            00014A32        appl_spp_sdp_callback (appl_spp)
               calls direct
               CSTACK = 00000000 ( 00000010 )
    -------------------------------------------------------------------------
<CODE> 3 (was CODE)
  Relative segment, address: 00014A4E - 00014A53 (0x6 bytes), align: 1
  Segment part 16.            Intra module refs:   BT_sdp_close
                                                   BT_sdp_open
    -------------------------------------------------------------------------
<CODE> 3 (was CODE)
  Relative segment, address: 00014A54 - 00014A5D (0xa bytes), align: 1
  Segment part 17.            Intra module refs:   BT_sdp_close
                                                   BT_sdp_open
    -------------------------------------------------------------------------
<CODE> 3 (was CODE)
  Relative segment, address: 00014A5E - 00014A77 (0x1a bytes), align: 1
  Segment part 18.
           ENTRY                   ADDRESS         REF BY
           =====                   =======         ======
           BT_sdp_open             00014A5E        appl_spp_sdp_query (appl_spp)
               calls direct
               CSTACK = 00000000 ( 00000010 )
    -------------------------------------------------------------------------
<CODE> 3 (was CODE)
  Relative segment, address: 00016984 - 0001698D (0xa bytes), align: 1
  Segment part 10.            Intra module refs:   BT_sdp_servicesearchattributerequest
    -------------------------------------------------------------------------
<CODE> 3 (was CODE)
  Relative segment, address: 00015A26 - 00015A4B (0x26 bytes), align: 1
  Segment part 12.            Intra module refs:   BT_sdp_servicesearchattributerequest
    -------------------------------------------------------------------------
<CODE> 3 (was CODE)
  Relative segment, address: 000160E6 - 000160F9 (0x14 bytes), align: 1
  Segment part 14.            Intra module refs:   BT_sdp_servicesearchattributerequest
    -------------------------------------------------------------------------
<CODE> 1 (was CODE)
  Relative segment, address: 95BC - 971B (0x160 bytes), align: 1
  Segment part 6.
           ENTRY                   ADDRESS         REF BY
           =====                   =======         ======
           BT_sdp_servicesearchattributerequest
                                   95BC            appl_spp_sdp_callback (appl_spp)
               calls direct
               CSTACK = 00000000 ( 0000006E )
    -------------------------------------------------------------------------
<CODE> 1 (was CODE)
  Relative segment, address: 971C - 9723 (0x8 bytes), align: 1
  Segment part 7.             Intra module refs:   BT_sdp_servicesearchattributerequest
    -------------------------------------------------------------------------
<CODE> 1 (was CODE)
  Relative segment, address: 9724 - 9897 (0x174 bytes), align: 1
  Segment part 3.             Intra module refs:   BT_sdp_servicesearchattributerequest
                                                   Segment part 17
           ENTRY                   ADDRESS         REF BY
           =====                   =======         ======
           sdp_api_req_handler     9724 
               calls direct
               CSTACK = 00000000 ( 00000028 )
    -------------------------------------------------------------------------
<CODE> 3 (was CODE)
  Relative segment, address: 00016778 - 00016785 (0xe bytes), align: 1
  Segment part 4.             Intra module refs:   sdp_api_req_handler
    -------------------------------------------------------------------------
<CODE> 3 (was CODE)
  Relative segment, address: 00016876 - 00016881 (0xc bytes), align: 1
  Segment part 5.             Intra module refs:   sdp_api_req_handler

    -------------------------------------------------------------------------
  LIBRARY MODULE, NAME : sdp_bh

  SEGMENTS IN THE MODULE
  ======================
<CODE> 1 (was CODE)
  Relative segment, address: D524 - D689 (0x166 bytes), align: 1
  Segment part 2.
           ENTRY                   ADDRESS         REF BY
           =====                   =======         ======
           sdp_request_bh          D524            sdp_api_req_handler (sdp_api)
               calls direct
               CSTACK = 00000000 ( 00000024 )

    -------------------------------------------------------------------------
  LIBRARY MODULE, NAME : sdp_client

  SEGMENTS IN THE MODULE
  ======================
<CODE> 1 (was CODE)
  Relative segment, address: 9DFA - A093 (0x29a bytes), align: 1
  Segment part 8.             Intra module refs:   sdp_client_response_handler
           ENTRY                   ADDRESS         REF BY
           =====                   =======         ======
           sdp_client_request_handler
                                   9DFA            sdp_request_bh (sdp_bh)
               calls direct
               CSTACK = 00000000 ( 00000030 )
    -------------------------------------------------------------------------
<CODE> 3 (was CODE)
  Relative segment, address: 000160FA - 0001610D (0x14 bytes), align: 1
  Segment part 9.             Intra module refs:   sdp_client_request_handler
    -------------------------------------------------------------------------
<CODE> 1 (was CODE)
  Relative segment, address: C4F0 - C69F (0x1b0 bytes), align: 1
  Segment part 10.
           ENTRY                   ADDRESS         REF BY
           =====                   =======         ======
           sdp_client_response_handler
                                   C4F0            sdp_l2cap_read (sdp_l2cap)
               calls direct
               CSTACK = 00000000 ( 00000028 )
    -------------------------------------------------------------------------
<CODE> 3 (was CODE)
  Relative segment, address: 00016390 - 000163A1 (0x12 bytes), align: 1
  Segment part 11.            Intra module refs:   sdp_client_response_handler
    -------------------------------------------------------------------------
<CODE> 3 (was CODE)
  Relative segment, address: 000100DC - 000101B7 (0xdc bytes), align: 1
  Segment part 4.             Intra module refs:   sdp_client_request_handler
           ENTRY                   ADDRESS         REF BY
           =====                   =======         ======
           sdp_client_frame_attribute_list
                                   000100DC 
               calls direct
               CSTACK = 00000000 ( 00000024 )
    -------------------------------------------------------------------------
<CODE> 3 (was CODE)
  Relative segment, address: 000169C0 - 000169C9 (0xa bytes), align: 1
  Segment part 5.             Intra module refs:   sdp_client_frame_attribute_list
    -------------------------------------------------------------------------
<CODE> 3 (was CODE)
  Relative segment, address: 000169E8 - 000169F1 (0xa bytes), align: 1
  Segment part 6.             Intra module refs:   sdp_client_frame_attribute_list
    -------------------------------------------------------------------------
<CODE> 3 (was CODE)
  Relative segment, address: 00016846 - 00016851 (0xc bytes), align: 1
  Segment part 7.             Intra module refs:   sdp_client_frame_attribute_list
    -------------------------------------------------------------------------
<CODE> 3 (was CODE)
  Relative segment, address: 00013E40 - 00013E9F (0x60 bytes), align: 1
  Segment part 3.
           ENTRY                   ADDRESS         REF BY
           =====                   =======         ======
           sdp_client_context_find
                                   00013E40        Segment part 13 (sdp_l2cap)
                                                   sdp_api_req_handler (sdp_api)
                                                   sdp_l2cap_connect_cfm (sdp_l2cap)
                                                   sdp_l2cap_disconnect_ind (sdp_l2cap)
                                                   sdp_request_bh (sdp_bh)
               calls direct
               CSTACK = 00000000 ( 0000001C )
    -------------------------------------------------------------------------
<CODE> 3 (was CODE)
  Relative segment, address: 00012FEE - 00013069 (0x7c bytes), align: 1
  Segment part 2.
           ENTRY                   ADDRESS         REF BY
           =====                   =======         ======
           sdp_context_signal      00012FEE        Segment part 28 (sdp_l2cap)
                                                   sdp_request_bh (sdp_bh)
               calls direct and indirect
               CSTACK = 00000000 ( 0000001C )

    -------------------------------------------------------------------------
  LIBRARY MODULE, NAME : sdp_init

  SEGMENTS IN THE MODULE
  ======================
DATA20_Z
  Relative segment, address: 3180 - 3183 (0x4 bytes), align: 1
  Segment part 2.             Intra module refs:   sdp_init
           ENTRY                   ADDRESS         REF BY
           =====                   =======         ======
           sdp_mutex               3180            Segment part 30 (sdp_l2cap)
                                                   Segment part 31 (sdp_l2cap)
                                                   Segment part 5 (sdp_api)
                                                   sdp_api_req_handler (sdp_api)
                                                   sdp_context_signal (sdp_client)
                                                   sdp_l2cap_connect_cfm (sdp_l2cap)
                                                   sdp_l2cap_connect_ind (sdp_l2cap)
                                                   sdp_l2cap_disconnect_ind (sdp_l2cap)
                                                   sdp_l2cap_read (sdp_l2cap)
                                                   sdp_request_bh (sdp_bh)
    -------------------------------------------------------------------------
DATA20_Z
  Relative segment, address: 3184 - 31AF (0x2c bytes), align: 1
  Segment part 3.             Intra module refs:   Segment part 9
                                                   sdp_init
           ENTRY                   ADDRESS         REF BY
           =====                   =======         ======
           sdp_client_ce           3184            sdp_request_bh (sdp_bh)
                                                   sdp_util_ce_client_bdaddr (sdp_util)
                                                   sdp_util_ce_find_cid (sdp_util)
    -------------------------------------------------------------------------
DATA20_Z
  Relative segment, address: 31B0 - 31DF (0x30 bytes), align: 1
  Segment part 4.             Intra module refs:   Segment part 9
           ENTRY                   ADDRESS         REF BY
           =====                   =======         ======
           sdp_context             31B0            sdp_api_req_handler (sdp_api)
                                                   sdp_client_context_find (sdp_client)
    -------------------------------------------------------------------------
DATA20_Z
  Relative segment, address: 31E0 - 320B (0x2c bytes), align: 1
  Segment part 5.             Intra module refs:   Segment part 9
                                                   sdp_init
           ENTRY                   ADDRESS         REF BY
           =====                   =======         ======
           sdp_server_ce           31E0            sdp_l2cap_connect_ind (sdp_l2cap)
                                                   sdp_util_ce_find_cid (sdp_util)
    -------------------------------------------------------------------------
DATA20_Z
  Relative segment, address: 320C - 320F (0x4 bytes), align: 1
  Segment part 6.             Intra module refs:   sdp_init
           ENTRY                   ADDRESS         REF BY
           =====                   =======         ======
           sdp_server_ind_cb       320C            Segment part 21 (sdp_l2cap)
                                                   sdp_l2cap_disconnect_ind (sdp_l2cap)
    -------------------------------------------------------------------------
<CODE> 3 (was CODE)
  Relative segment, address: 000156BA - 000156E7 (0x2e bytes), align: 1
  Segment part 10.
           ENTRY                   ADDRESS         REF BY
           =====                   =======         ======
           sdp_init                000156BA        ethermind_init_upper_pl (BT_common_pl)
               calls direct
               CSTACK = 00000000 ( 00000004 )
    -------------------------------------------------------------------------
<CODE> 3 (was CODE)
  Relative segment, address: 00013F5C - 00013FB9 (0x5e bytes), align: 1
  Segment part 8.
           ENTRY                   ADDRESS         REF BY
           =====                   =======         ======
           sdp_bt_init             00013F5C        bluetooth_on_upper_pl (BT_common_pl)
               calls direct
               CSTACK = 00000000 ( 0000002A )
    -------------------------------------------------------------------------
<CODE> 3 (was CODE)
  Relative segment, address: 000157F6 - 00015821 (0x2c bytes), align: 1
  Segment part 9.             Intra module refs:   sdp_bt_init

    -------------------------------------------------------------------------
  LIBRARY MODULE, NAME : sdp_l2cap

  SEGMENTS IN THE MODULE
  ======================
<CODE> 1 (was CODE)
  Relative segment, address: 865E - 865F (0x2 bytes), align: 1
  Segment part 8.             Intra module refs:   sdp_l2cap_config_ind
    -------------------------------------------------------------------------
<CODE> 1 (was CODE)
  Relative segment, address: 8660 - 8665 (0x6 bytes), align: 1
  Segment part 9.             Intra module refs:   Segment part 27
                                                   Segment part 8
                                                   sdp_l2cap_config_cfm
                                                   sdp_l2cap_read
    -------------------------------------------------------------------------
<CODE> 1 (was CODE)
  Relative segment, address: 8666 - 8669 (0x4 bytes), align: 1
  Segment part 10.            Intra module refs:   sdp_l2cap_config_cfm
                                                   sdp_l2cap_config_ind
    -------------------------------------------------------------------------
<CODE> 1 (was CODE)
  Relative segment, address: 866A - 866B (0x2 bytes), align: 1
  Segment part 11.            Intra module refs:   Segment part 16
                                                   Segment part 17
    -------------------------------------------------------------------------
<CODE> 1 (was CODE)
  Relative segment, address: 866C - 8673 (0x8 bytes), align: 1
  Segment part 12.            Intra module refs:   Segment part 10
                                                   Segment part 11
                                                   Segment part 31
                                                   sdp_l2cap_connect_cfm
                                                   sdp_l2cap_disconnect_ind
    -------------------------------------------------------------------------
<CODE> 1 (was CODE)
  Relative segment, address: 8674 - 8687 (0x14 bytes), align: 1
  Segment part 13.            Intra module refs:   sdp_l2cap_config_cfm
                                                   sdp_l2cap_config_ind
                                                   sdp_l2cap_read
    -------------------------------------------------------------------------
<CODE> 1 (was CODE)
  Relative segment, address: 8688 - 8691 (0xa bytes), align: 1
  Segment part 14.            Intra module refs:   sdp_l2cap_config_cfm
                                                   sdp_l2cap_config_ind
                                                   sdp_l2cap_read
    -------------------------------------------------------------------------
<CODE> 1 (was CODE)
  Relative segment, address: 8692 - 8779 (0xe8 bytes), align: 1
  Segment part 15.
           ENTRY                   ADDRESS         REF BY
           =====                   =======         ======
           sdp_l2cap_config_ind    8692            sdp_bt_init (sdp_init)
               calls direct and indirect
               CSTACK = 00000000 ( 0000003A )
    -------------------------------------------------------------------------
<CODE> 1 (was CODE)
  Relative segment, address: 877A - 8781 (0x8 bytes), align: 1
  Segment part 16.            Intra module refs:   sdp_l2cap_config_cfm
                                                   sdp_l2cap_config_ind
    -------------------------------------------------------------------------
<CODE> 1 (was CODE)
  Relative segment, address: 8782 - 8787 (0x6 bytes), align: 1
  Segment part 17.            Intra module refs:   sdp_l2cap_config_cfm
                                                   sdp_l2cap_config_ind
    -------------------------------------------------------------------------
<CODE> 1 (was CODE)
  Relative segment, address: 8788 - 8795 (0xe bytes), align: 1
  Segment part 18.            Intra module refs:   sdp_l2cap_config_cfm
                                                   sdp_l2cap_config_ind
    -------------------------------------------------------------------------
<CODE> 1 (was CODE)
  Relative segment, address: 8796 - 87A3 (0xe bytes), align: 1
  Segment part 19.            Intra module refs:   Segment part 17
                                                   Segment part 18
    -------------------------------------------------------------------------
<CODE> 1 (was CODE)
  Relative segment, address: 87A4 - 87B9 (0x16 bytes), align: 1
  Segment part 20.            Intra module refs:   sdp_l2cap_config_cfm
                                                   sdp_l2cap_config_ind
    -------------------------------------------------------------------------
<CODE> 1 (was CODE)
  Relative segment, address: 87BA - 87D7 (0x1e bytes), align: 1
  Segment part 21.            Intra module refs:   sdp_l2cap_config_cfm
                                                   sdp_l2cap_config_ind
    -------------------------------------------------------------------------
<CODE> 1 (was CODE)
  Relative segment, address: 87D8 - 87DF (0x8 bytes), align: 1
  Segment part 22.            Intra module refs:   Segment part 21
                                                   Segment part 30
                                                   sdp_l2cap_connect_cfm
                                                   sdp_l2cap_connect_ind
                                                   sdp_l2cap_disconnect_ind
                                                   sdp_l2cap_read
    -------------------------------------------------------------------------
<CODE> 1 (was CODE)
  Relative segment, address: 87E0 - 87E7 (0x8 bytes), align: 1
  Segment part 23.            Intra module refs:   sdp_l2cap_config_ind
                                                   sdp_l2cap_connect_cfm
    -------------------------------------------------------------------------
<CODE> 1 (was CODE)
  Relative segment, address: 87E8 - 88AD (0xc6 bytes), align: 1
  Segment part 24.
           ENTRY                   ADDRESS         REF BY
           =====                   =======         ======
           sdp_l2cap_connect_cfm   87E8            sdp_bt_init (sdp_init)
               calls direct
               CSTACK = 00000000 ( 0000003A )
    -------------------------------------------------------------------------
<CODE> 1 (was CODE)
  Relative segment, address: 88AE - 88B9 (0xc bytes), align: 1
  Segment part 25.            Intra module refs:   sdp_l2cap_config_ind
                                                   sdp_l2cap_connect_cfm
    -------------------------------------------------------------------------
<CODE> 1 (was CODE)
  Relative segment, address: 88BA - 88CD (0x14 bytes), align: 1
  Segment part 26.            Intra module refs:   sdp_l2cap_config_ind
                                                   sdp_l2cap_connect_cfm
    -------------------------------------------------------------------------
<CODE> 1 (was CODE)
  Relative segment, address: 88CE - 88D1 (0x4 bytes), align: 1
  Segment part 27.            Intra module refs:   sdp_l2cap_connect_cfm
                                                   sdp_l2cap_disconnect_ind
    -------------------------------------------------------------------------
<CODE> 1 (was CODE)
  Relative segment, address: 88D2 - 88D9 (0x8 bytes), align: 1
  Segment part 28.            Intra module refs:   Segment part 20
                                                   Segment part 9
    -------------------------------------------------------------------------
<CODE> 1 (was CODE)
  Relative segment, address: 88DA - 89A5 (0xcc bytes), align: 1
  Segment part 29.
           ENTRY                   ADDRESS         REF BY
           =====                   =======         ======
           sdp_l2cap_connect_ind   88DA            sdp_bt_init (sdp_init)
               calls direct
               CSTACK = 00000000 ( 00000014 )
    -------------------------------------------------------------------------
<CODE> 1 (was CODE)
  Relative segment, address: 89A6 - 89AD (0x8 bytes), align: 1
  Segment part 30.            Intra module refs:   sdp_l2cap_config_cfm
                                                   sdp_l2cap_config_ind
    -------------------------------------------------------------------------
<CODE> 1 (was CODE)
  Relative segment, address: 89AE - 89B3 (0x6 bytes), align: 1
  Segment part 31.            Intra module refs:   sdp_l2cap_connect_ind
                                                   sdp_l2cap_read
    -------------------------------------------------------------------------
<CODE> 1 (was CODE)
  Relative segment, address: AC90 - AD55 (0xc6 bytes), align: 1
  Segment part 3.
           ENTRY                   ADDRESS         REF BY
           =====                   =======         ======
           sdp_l2cap_read          AC90            sdp_bt_init (sdp_init)
               calls direct
               CSTACK = 00000000 ( 0000001C )
    -------------------------------------------------------------------------
<CODE> 1 (was CODE)
  Relative segment, address: AD56 - AD5B (0x6 bytes), align: 1
  Segment part 4.             Intra module refs:   sdp_l2cap_config_cfm
                                                   sdp_l2cap_read
    -------------------------------------------------------------------------
<CODE> 1 (was CODE)
  Relative segment, address: AD5C - AE59 (0xfe bytes), align: 1
  Segment part 5.             Intra module refs:   sdp_l2cap_disconnect_cfm
           ENTRY                   ADDRESS         REF BY
           =====                   =======         ======
           sdp_l2cap_disconnect_ind
                                   AD5C            sdp_bt_init (sdp_init)
               calls direct and indirect
               CSTACK = 00000000 ( 00000022 )
    -------------------------------------------------------------------------
<CODE> 1 (was CODE)
  Relative segment, address: AE5A - AE5D (0x4 bytes), align: 1
  Segment part 6.
           ENTRY                   ADDRESS         REF BY
           =====                   =======         ======
           sdp_l2cap_disconnect_cfm
                                   AE5A            sdp_bt_init (sdp_init)
               calls direct
               CSTACK = 00000000 ( 00000004 )
    -------------------------------------------------------------------------
<CODE> 1 (was CODE)
  Relative segment, address: AE5E - AEDF (0x82 bytes), align: 1
  Segment part 7.
           ENTRY                   ADDRESS         REF BY
           =====                   =======         ======
           sdp_l2cap_config_cfm    AE5E            sdp_bt_init (sdp_init)
               calls direct and indirect
               CSTACK = 00000000 ( 0000001C )
    -------------------------------------------------------------------------
<CODE> 3 (was CODE)
  Relative segment, address: 0001412A - 00014183 (0x5a bytes), align: 1
  Segment part 2.             Intra module refs:   sdp_l2cap_read
           ENTRY                   ADDRESS         REF BY
           =====                   =======         ======
           sdp_l2cap_send          0001412A        sdp_client_request_handler (sdp_client)
               calls direct
               CSTACK = 00000000 ( 00000016 )

    -------------------------------------------------------------------------
  LIBRARY MODULE, NAME : sdp_pdu_handler

  SEGMENTS IN THE MODULE
  ======================
<CODE> 3 (was CODE)
  Relative segment, address: 00010514 - 000105E7 (0xd4 bytes), align: 1
  Segment part 13.
           ENTRY                   ADDRESS         REF BY
           =====                   =======         ======
           sdp_pdu_handler_frame_data_element_header
                                   00010514        Segment part 11 (sdp_server)
                                                   sdp_client_frame_attribute_list (sdp_client)
                                                   sdp_client_request_handler (sdp_client)
               CSTACK = 00000000 ( 00000024 )
    -------------------------------------------------------------------------
<CODE> 1 (was CODE)
  Relative segment, address: C9FE - CBA5 (0x1a8 bytes), align: 1
  Segment part 10.
           ENTRY                   ADDRESS         REF BY
           =====                   =======         ======
           sdp_pdu_handler_frame_data_element_sequence
                                   C9FE            Segment part 5 (sdp_client)
                                                   Segment part 6 (sdp_client)
                                                   sdp_client_frame_attribute_list (sdp_client)
                                                   sdp_client_request_handler (sdp_client)
               calls direct
               CSTACK = 00000000 ( 00000028 )
    -------------------------------------------------------------------------
<CODE> 3 (was CODE)
  Relative segment, address: 00016644 - 00016651 (0xe bytes), align: 1
  Segment part 11.            Intra module refs:   sdp_pdu_handler_frame_data_element_sequence
    -------------------------------------------------------------------------
<CODE> 3 (was CODE)
  Relative segment, address: 00016A38 - 00016A41 (0xa bytes), align: 1
  Segment part 12.            Intra module refs:   sdp_pdu_handler_frame_data_element_sequence
    -------------------------------------------------------------------------
<CODE> 1 (was CODE)
  Relative segment, address: DFB0 - E0E9 (0x13a bytes), align: 1
  Segment part 2.             Intra module refs:   Segment part 6
           ENTRY                   ADDRESS         REF BY
           =====                   =======         ======
           sdp_pdu_handler_parse_data_element
                                   DFB0            Segment part 20 (sdp_util_api)
                                                   sdp_search_attribute_value (sdp_util_api)
                                                   sdp_server_frame_attribute_list (sdp_server)
                                                   sdp_server_get_attr_values (sdp_server)
                                                   sdp_server_response_handler (sdp_server)
               CSTACK = 00000000 ( 0000001C )
    -------------------------------------------------------------------------
<CODE> 3 (was CODE)
  Relative segment, address: 000163EA - 000163FB (0x12 bytes), align: 1
  Segment part 3.             Intra module refs:   sdp_pdu_handler_parse_data_element
    -------------------------------------------------------------------------
<CODE> 1 (was CODE)
  Relative segment, address: B372 - B58B (0x21a bytes), align: 1
  Segment part 4.
           ENTRY                   ADDRESS         REF BY
           =====                   =======         ======
           sdp_pdu_handler_parse_data_element_sequence
                                   B372            sdp_server_get_record_handles (sdp_server)
               calls direct
               CSTACK = 00000000 ( 00000044 )
    -------------------------------------------------------------------------
<CODE> 3 (was CODE)
  Relative segment, address: 00016A42 - 00016A4B (0xa bytes), align: 1
  Segment part 5.             Intra module refs:   sdp_pdu_handler_parse_data_element_sequence
    -------------------------------------------------------------------------
<CODE> 3 (was CODE)
  Relative segment, address: 000165DE - 000165ED (0x10 bytes), align: 1
  Segment part 6.             Intra module refs:   sdp_pdu_handler_parse_data_element_sequence
    -------------------------------------------------------------------------
<CODE> 3 (was CODE)
  Relative segment, address: 00015F64 - 00015F7B (0x18 bytes), align: 1
  Segment part 7.             Intra module refs:   sdp_pdu_handler_parse_data_element_sequence
    -------------------------------------------------------------------------
<CODE> 3 (was CODE)
  Relative segment, address: 00015C68 - 00015C71 (0xa bytes), align: 1
  Segment part 8.             Intra module refs:   sdp_pdu_handler_parse_data_element_sequence
    -------------------------------------------------------------------------
<CODE> 3 (was CODE)
  Relative segment, address: 00015C72 - 00015C85 (0x14 bytes), align: 1
  Segment part 9.             Intra module refs:   Segment part 8
                                                   sdp_pdu_handler_parse_data_element_sequence

    -------------------------------------------------------------------------
  LIBRARY MODULE, NAME : sdp_server

  SEGMENTS IN THE MODULE
  ======================
<CODE> 1 (was CODE)
  Relative segment, address: 9B52 - 9DF9 (0x2a8 bytes), align: 1
  Segment part 5.             Intra module refs:   sdp_server_response_handler
           ENTRY                   ADDRESS         REF BY
           =====                   =======         ======
           sdp_server_frame_attribute_list
                                   9B52 
               calls direct
               CSTACK = 00000000 ( 00000048 )
    -------------------------------------------------------------------------
<CODE> 3 (was CODE)
  Relative segment, address: 00016822 - 0001682D (0xc bytes), align: 1
  Segment part 6.             Intra module refs:   sdp_server_frame_attribute_list
    -------------------------------------------------------------------------
<CODE> 3 (was CODE)
  Relative segment, address: 00016A56 - 00016A5F (0xa bytes), align: 1
  Segment part 7.             Intra module refs:   sdp_server_frame_attribute_list
    -------------------------------------------------------------------------
<CODE> 3 (was CODE)
  Relative segment, address: 00016A60 - 00016A69 (0xa bytes), align: 1
  Segment part 8.             Intra module refs:   sdp_server_frame_attribute_list
    -------------------------------------------------------------------------
<CODE> 3 (was CODE)
  Relative segment, address: 00016300 - 00016311 (0x12 bytes), align: 1
  Segment part 9.             Intra module refs:   sdp_server_frame_attribute_list
    -------------------------------------------------------------------------
<CODE> 3 (was CODE)
  Relative segment, address: 00016270 - 00016281 (0x12 bytes), align: 1
  Segment part 10.            Intra module refs:   sdp_server_frame_attribute_list
    -------------------------------------------------------------------------
<CODE> 3 (was CODE)
  Relative segment, address: 000163D8 - 000163E9 (0x12 bytes), align: 1
  Segment part 11.            Intra module refs:   sdp_server_frame_attribute_list
    -------------------------------------------------------------------------
<CODE> 3 (was CODE)
  Relative segment, address: 00016282 - 00016293 (0x12 bytes), align: 1
  Segment part 12.            Intra module refs:   sdp_server_frame_attribute_list
    -------------------------------------------------------------------------
<CODE> 3 (was CODE)
  Relative segment, address: 00015E6C - 00015E85 (0x1a bytes), align: 1
  Segment part 13.            Intra module refs:   sdp_server_frame_attribute_list
    -------------------------------------------------------------------------
<CODE> 3 (was CODE)
  Relative segment, address: 00016172 - 00016175 (0x4 bytes), align: 1
  Segment part 14.            Intra module refs:   sdp_server_frame_attribute_list
                                                   sdp_server_get_attr_values
                                                   sdp_server_response_handler
    -------------------------------------------------------------------------
<CODE> 3 (was CODE)
  Relative segment, address: 00016176 - 0001617F (0xa bytes), align: 1
  Segment part 15.            Intra module refs:   Segment part 14
                                                   Segment part 16
    -------------------------------------------------------------------------
<CODE> 3 (was CODE)
  Relative segment, address: 00016180 - 00016185 (0x6 bytes), align: 1
  Segment part 16.            Intra module refs:   sdp_server_frame_attribute_list
                                                   sdp_server_get_attr_values
                                                   sdp_server_response_handler
    -------------------------------------------------------------------------
<CODE> 1 (was CODE)
  Relative segment, address: 82FE - 865D (0x360 bytes), align: 1
  Segment part 17.            Intra module refs:   sdp_server_request_handler
           ENTRY                   ADDRESS         REF BY
           =====                   =======         ======
           sdp_server_response_handler
                                   82FE 
               calls direct
               CSTACK = 00000000 ( 00000052 )
    -------------------------------------------------------------------------
<CODE> 3 (was CODE)
  Relative segment, address: 000166A6 - 000166B3 (0xe bytes), align: 1
  Segment part 18.            Intra module refs:   sdp_server_response_handler
    -------------------------------------------------------------------------
<CODE> 3 (was CODE)
  Relative segment, address: 00015D1C - 00015D39 (0x1e bytes), align: 1
  Segment part 19.            Intra module refs:   sdp_server_response_handler
    -------------------------------------------------------------------------
<CODE> 3 (was CODE)
  Relative segment, address: 000166C2 - 000166CF (0xe bytes), align: 1
  Segment part 20.            Intra module refs:   sdp_server_response_handler
    -------------------------------------------------------------------------
<CODE> 3 (was CODE)
  Relative segment, address: 000166D0 - 000166DD (0xe bytes), align: 1
  Segment part 21.            Intra module refs:   sdp_server_response_handler
    -------------------------------------------------------------------------
<CODE> 3 (was CODE)
  Relative segment, address: 00016A6A - 00016A73 (0xa bytes), align: 1
  Segment part 22.            Intra module refs:   sdp_server_response_handler
    -------------------------------------------------------------------------
<CODE> 3 (was CODE)
  Relative segment, address: 0001615E - 00016171 (0x14 bytes), align: 1
  Segment part 23.            Intra module refs:   sdp_server_response_handler
    -------------------------------------------------------------------------
<CODE> 3 (was CODE)
  Relative segment, address: 00010920 - 000109E9 (0xca bytes), align: 1
  Segment part 24.
           ENTRY                   ADDRESS         REF BY
           =====                   =======         ======
           sdp_server_request_handler
                                   00010920        sdp_l2cap_read (sdp_l2cap)
               calls direct
               CSTACK = 00000000 ( 00000014 )
    -------------------------------------------------------------------------
<CODE> 3 (was CODE)
  Relative segment, address: 0001636C - 0001637D (0x12 bytes), align: 1
  Segment part 25.            Intra module refs:   sdp_server_request_handler
    -------------------------------------------------------------------------
<CODE> 3 (was CODE)
  Relative segment, address: 0001043E - 00010513 (0xd6 bytes), align: 1
  Segment part 4.             Intra module refs:   sdp_server_response_handler
           ENTRY                   ADDRESS         REF BY
           =====                   =======         ======
           sdp_server_get_record_handles
                                   0001043E 
               calls direct
               CSTACK = 00000000 ( 000000EC )
    -------------------------------------------------------------------------
<CODE> 1 (was CODE)
  Relative segment, address: 92E0 - 95BB (0x2dc bytes), align: 1
  Segment part 2.             Intra module refs:   Segment part 12
           ENTRY                   ADDRESS         REF BY
           =====                   =======         ======
           sdp_server_get_attr_values
                                   92E0 
               calls direct
               CSTACK = 00000000 ( 0000004A )
    -------------------------------------------------------------------------
<CODE> 3 (was CODE)
  Relative segment, address: 00016732 - 0001673F (0xe bytes), align: 1
  Segment part 3.             Intra module refs:   sdp_server_get_attr_values

    -------------------------------------------------------------------------
  LIBRARY MODULE, NAME : sdp_util

  SEGMENTS IN THE MODULE
  ======================
<CODE> 3 (was CODE)
  Relative segment, address: 00014FDE - 00015019 (0x3c bytes), align: 1
  Segment part 6.
           ENTRY                   ADDRESS         REF BY
           =====                   =======         ======
           sdp_util_ce_reset       00014FDE        Segment part 19 (sdp_l2cap)
                                                   Segment part 9 (sdp_init)
                                                   sdp_l2cap_connect_cfm (sdp_l2cap)
                                                   sdp_l2cap_connect_ind (sdp_l2cap)
                                                   sdp_l2cap_disconnect_ind (sdp_l2cap)
                                                   sdp_request_bh (sdp_bh)
               calls direct
               CSTACK = 00000000 ( 00000008 )
    -------------------------------------------------------------------------
<CODE> 3 (was CODE)
  Relative segment, address: 00013438 - 000134AF (0x78 bytes), align: 1
  Segment part 4.
           ENTRY                   ADDRESS         REF BY
           =====                   =======         ======
           sdp_util_ce_find_cid    00013438        Segment part 14 (sdp_l2cap)
                                                   sdp_l2cap_disconnect_ind (sdp_l2cap)
               CSTACK = 00000000 ( 00000008 )
    -------------------------------------------------------------------------
<CODE> 3 (was CODE)
  Relative segment, address: 00016A88 - 00016A91 (0xa bytes), align: 1
  Segment part 5.             Intra module refs:   sdp_util_ce_client_bdaddr
                                                   sdp_util_ce_find_cid
    -------------------------------------------------------------------------
<CODE> 3 (was CODE)
  Relative segment, address: 00013EFE - 00013F5B (0x5e bytes), align: 1
  Segment part 3.
           ENTRY                   ADDRESS         REF BY
           =====                   =======         ======
           sdp_util_ce_set_state   00013EFE        sdp_l2cap_config_cfm (sdp_l2cap)
                                                   sdp_l2cap_config_ind (sdp_l2cap)
               CSTACK = 00000000 ( 00000008 )
    -------------------------------------------------------------------------
<CODE> 3 (was CODE)
  Relative segment, address: 00014184 - 000141DB (0x58 bytes), align: 1
  Segment part 2.
           ENTRY                   ADDRESS         REF BY
           =====                   =======         ======
           sdp_util_ce_client_bdaddr
                                   00014184        sdp_client_request_handler (sdp_client)
                                                   sdp_l2cap_connect_cfm (sdp_l2cap)
                                                   sdp_request_bh (sdp_bh)
               calls direct
               CSTACK = 00000000 ( 0000001C )

    -------------------------------------------------------------------------
  LIBRARY MODULE, NAME : sdp_util_api

  SEGMENTS IN THE MODULE
  ======================
<CODE> 1 (was CODE)
  Relative segment, address: AEE0 - AEE7 (0x8 bytes), align: 1
  Segment part 13.            Intra module refs:   Segment part 48
    -------------------------------------------------------------------------
<CODE> 1 (was CODE)
  Relative segment, address: AEE8 - AFD1 (0xea bytes), align: 1
  Segment part 15.            Intra module refs:   sdp_get_channel
                                                   sdp_get_psm
           ENTRY                   ADDRESS         REF BY
           =====                   =======         ======
           sdp_get_PointerToUUID   AEE8 
               calls direct
               CSTACK = 00000000 ( 0000003C )
    -------------------------------------------------------------------------
<CODE> 1 (was CODE)
  Relative segment, address: AFD2 - B03F (0x6e bytes), align: 1
  Segment part 16.            Intra module refs:   Segment part 27
           ENTRY                   ADDRESS         REF BY
           =====                   =======         ======
           sdp_get_channel         AFD2 
               calls direct
               CSTACK = 00000000 ( 00000020 )
    -------------------------------------------------------------------------
<CODE> 1 (was CODE)
  Relative segment, address: B040 - B047 (0x8 bytes), align: 1
  Segment part 17.            Intra module refs:   sdp_get_channel
                                                   sdp_get_psm
    -------------------------------------------------------------------------
<CODE> 1 (was CODE)
  Relative segment, address: B048 - B04B (0x4 bytes), align: 1
  Segment part 19.            Intra module refs:   sdp_get_PointerToUUID
    -------------------------------------------------------------------------
<CODE> 1 (was CODE)
  Relative segment, address: B04C - B053 (0x8 bytes), align: 1
  Segment part 20.            Intra module refs:   Segment part 19
                                                   sdp_get_channel
                                                   sdp_get_psm
                                                   sdp_search_attribute_value
    -------------------------------------------------------------------------
<CODE> 1 (was CODE)
  Relative segment, address: B054 - B0CB (0x78 bytes), align: 1
  Segment part 21.            Intra module refs:   Segment part 29
           ENTRY                   ADDRESS         REF BY
           =====                   =======         ======
           sdp_get_psm             B054 
               calls direct
               not allocated function
    -------------------------------------------------------------------------
<CODE> 1 (was CODE)
  Relative segment, address: B0CC - B0E1 (0x16 bytes), align: 1
  Segment part 27.            Intra module refs:   BT_sdp_get_channel_number
    -------------------------------------------------------------------------
<CODE> 1 (was CODE)
  Relative segment, address: B0E2 - B0FD (0x1c bytes), align: 1
  Segment part 29.            Intra module refs:   Segment part 27
    -------------------------------------------------------------------------
<CODE> 1 (was CODE)
  Relative segment, address: B0FE - B10D (0x10 bytes), align: 1
  Segment part 30.
           ENTRY                   ADDRESS         REF BY
           =====                   =======         ======
           BT_sdp_get_channel_number
                                   B0FE            appl_spp_sdp_callback (appl_spp)
               calls direct
               CSTACK = 00000000 ( 0000000E )
    -------------------------------------------------------------------------
<CODE> 1 (was CODE)
  Relative segment, address: B10E - B117 (0xa bytes), align: 1
  Segment part 41.            Intra module refs:   sdp_get_psm
    -------------------------------------------------------------------------
<CODE> 1 (was CODE)
  Relative segment, address: B118 - B121 (0xa bytes), align: 1
  Segment part 42.            Intra module refs:   sdp_get_psm
    -------------------------------------------------------------------------
<CODE> 1 (was CODE)
  Relative segment, address: B122 - B12B (0xa bytes), align: 1
  Segment part 48.            Intra module refs:   Segment part 27
                                                   Segment part 29
    -------------------------------------------------------------------------
<CODE> 3 (was CODE)
  Relative segment, address: 000124D6 - 0001256D (0x98 bytes), align: 1
  Segment part 4.             Intra module refs:   Segment part 13
           ENTRY                   ADDRESS         REF BY
           =====                   =======         ======
           sdp_search_attribute_value
                                   000124D6 
               calls direct
               CSTACK = 00000000 ( 00000022 )
    -------------------------------------------------------------------------
<CODE> 3 (was CODE)
  Relative segment, address: 00016226 - 00016239 (0x14 bytes), align: 1
  Segment part 5.             Intra module refs:   sdp_search_attribute_value
    -------------------------------------------------------------------------
<CODE> 3 (was CODE)
  Relative segment, address: 000141DC - 00014233 (0x58 bytes), align: 1
  Segment part 3.             Intra module refs:   sdp_get_PointerToUUID
           ENTRY                   ADDRESS         REF BY
           =====                   =======         ======
           BT_uuid_32_to_128       000141DC        sdp_pdu_handler_parse_data_element_sequence (sdp_pdu_handler)
               CSTACK = 00000000 ( 00000004 )

    -------------------------------------------------------------------------
  LIBRARY MODULE, NAME : sm_api

  SEGMENTS IN THE MODULE
  ======================
<CODE> 3 (was CODE)
  Relative segment, address: 000167E6 - 000167F1 (0xc bytes), align: 1
  Segment part 24.            Intra module refs:   BT_sm_add_service
                                                   sm_device_link_key
    -------------------------------------------------------------------------
<CODE> 1 (was CODE)
  Relative segment, address: EB3A - EB41 (0x8 bytes), align: 1
  Segment part 9.             Intra module refs:   BT_sm_add_service
    -------------------------------------------------------------------------
<CODE> 1 (was CODE)
  Relative segment, address: EB42 - EB47 (0x6 bytes), align: 1
  Segment part 10.            Intra module refs:   Segment part 21
                                                   Segment part 9
    -------------------------------------------------------------------------
<CODE> 1 (was CODE)
  Relative segment, address: EB48 - EB4F (0x8 bytes), align: 1
  Segment part 13.            Intra module refs:   Segment part 30
    -------------------------------------------------------------------------
<CODE> 1 (was CODE)
  Relative segment, address: EB50 - EB5B (0xc bytes), align: 1
  Segment part 15.            Intra module refs:   BT_sm_add_service
    -------------------------------------------------------------------------
<CODE> 1 (was CODE)
  Relative segment, address: EB5C - EB61 (0x6 bytes), align: 1
  Segment part 16.            Intra module refs:   Segment part 15
    -------------------------------------------------------------------------
<CODE> 1 (was CODE)
  Relative segment, address: EB62 - EC33 (0xd2 bytes), align: 1
  Segment part 18.
           ENTRY                   ADDRESS         REF BY
           =====                   =======         ======
           sm_device_link_key      EB62            sdk_sm_ui_notify_cb (appl_cb)
               calls direct
               CSTACK = 00000000 ( 0000001C )
    -------------------------------------------------------------------------
<CODE> 1 (was CODE)
  Relative segment, address: EC34 - EC3F (0xc bytes), align: 1
  Segment part 19.            Intra module refs:   Segment part 15
                                                   sm_device_link_key
    -------------------------------------------------------------------------
<CODE> 1 (was CODE)
  Relative segment, address: EC40 - EC45 (0x6 bytes), align: 1
  Segment part 21.            Intra module refs:   sm_device_link_key
    -------------------------------------------------------------------------
<CODE> 1 (was CODE)
  Relative segment, address: EC46 - EC51 (0xc bytes), align: 1
  Segment part 30.            Intra module refs:   sm_device_link_key
    -------------------------------------------------------------------------
<CODE> 3 (was CODE)
  Relative segment, address: 00016ACE - 00016AD5 (0x8 bytes), align: 1
  Segment part 31.            Intra module refs:   sm_device_link_key
    -------------------------------------------------------------------------
<CODE> 1 (was CODE)
  Relative segment, address: E5A4 - E6C7 (0x124 bytes), align: 1
  Segment part 6.
           ENTRY                   ADDRESS         REF BY
           =====                   =======         ======
           BT_sm_add_service       E5A4            appl_spp_start (appl_spp)
               calls direct
               CSTACK = 00000000 ( 0000001C )
    -------------------------------------------------------------------------
<CODE> 3 (was CODE)
  Relative segment, address: 00015CC2 - 00015CCF (0xe bytes), align: 1
  Segment part 7.             Intra module refs:   BT_sm_add_service
    -------------------------------------------------------------------------
<CODE> 3 (was CODE)
  Relative segment, address: 00015CD0 - 00015CDF (0x10 bytes), align: 1
  Segment part 8.             Intra module refs:   BT_sm_add_service
                                                   Segment part 7

    -------------------------------------------------------------------------
  LIBRARY MODULE, NAME : sm_core

  SEGMENTS IN THE MODULE
  ======================
<CODE> 1 (was CODE)
  Relative segment, address: A094 - A097 (0x4 bytes), align: 1
  Segment part 4.             Intra module refs:   sm_context_state_machine
    -------------------------------------------------------------------------
<CODE> 1 (was CODE)
  Relative segment, address: A098 - A09B (0x4 bytes), align: 1
  Segment part 5.             Intra module refs:   Segment part 4
                                                   sm_state_machine
    -------------------------------------------------------------------------
<CODE> 1 (was CODE)
  Relative segment, address: A09C - A0A1 (0x6 bytes), align: 1
  Segment part 6.             Intra module refs:   Segment part 12
                                                   Segment part 4
                                                   Segment part 5
                                                   sm_context_state_machine
                                                   sm_is_link_key_sufficient
                                                   sm_state_machine
    -------------------------------------------------------------------------
<CODE> 1 (was CODE)
  Relative segment, address: A0A2 - A0D5 (0x34 bytes), align: 1
  Segment part 7.             Intra module refs:   sm_state_machine
           ENTRY                   ADDRESS         REF BY
           =====                   =======         ======
           sm_search_service_entity
                                   A0A2            BT_sm_add_service (sm_api)
                                                   sm_access_request (sm_interface)
               CSTACK = 00000000 ( 00000008 )
    -------------------------------------------------------------------------
<CODE> 1 (was CODE)
  Relative segment, address: A0D6 - A127 (0x52 bytes), align: 1
  Segment part 8.             Intra module refs:   sm_search_and_add_device_entity
                                                   sm_state_machine
           ENTRY                   ADDRESS         REF BY
           =====                   =======         ======
           sm_search_device_entity
                                   A0D6            Segment part 13 (sm_api)
                                                   Segment part 15 (sm_interface)
                                                   sm_hci_proc_complete (sm_interface)
                                                   sm_link_key_pin_code_request (sm_interface)
                                                   sm_remote_oob_data_request (sm_interface)
                                                   sm_ui_notification_request_reply (sm_ui)
                                                   sm_user_conf_request (sm_interface)
               calls direct
               CSTACK = 00000000 ( 0000001C )
    -------------------------------------------------------------------------
<CODE> 1 (was CODE)
  Relative segment, address: A128 - A2BB (0x194 bytes), align: 1
  Segment part 9.
           ENTRY                   ADDRESS         REF BY
           =====                   =======         ======
           sm_state_machine        A128            sm_hci_proc_complete (sm_interface)
                                                   sm_ui_notification_bh (sm_ui)
               calls direct
               CSTACK = 00000000 ( 00000034 )
    -------------------------------------------------------------------------
<CODE> 1 (was CODE)
  Relative segment, address: A2BC - A301 (0x46 bytes), align: 1
  Segment part 10.
           ENTRY                   ADDRESS         REF BY
           =====                   =======         ======
           sm_set_device_valid_flag
                                   A2BC            Segment part 13 (sm_interface)
                                                   Segment part 31 (sm_api)
                                                   sm_acl_connection_complete (sm_interface)
                                                   sm_link_key_pin_code_request (sm_interface)
                                                   sm_ui_notification_request_reply (sm_ui)
               calls direct
               CSTACK = 00000000 ( 00000010 )
    -------------------------------------------------------------------------
<CODE> 1 (was CODE)
  Relative segment, address: A302 - A309 (0x8 bytes), align: 1
  Segment part 11.            Intra module refs:   sm_create_device_entity
    -------------------------------------------------------------------------
<CODE> 1 (was CODE)
  Relative segment, address: A30A - A30F (0x6 bytes), align: 1
  Segment part 12.            Intra module refs:   Segment part 11
                                                   sm_context_state_machine
                                                   sm_delete_device_entity
                                                   sm_is_link_key_sufficient
                                                   sm_set_device_valid_flag
    -------------------------------------------------------------------------
<CODE> 2 (was CODE)
  Relative segment, address: FA90 - FB7F (0xf0 bytes), align: 1
  Segment part 15.            Intra module refs:   sm_search_and_add_device_entity
           ENTRY                   ADDRESS         REF BY
           =====                   =======         ======
           sm_create_device_entity
                                   FA90            sm_acl_connection_complete (sm_interface)
                                                   sm_link_key_pin_code_request (sm_interface)
                                                   sm_storage_read (sm_storage)
               calls direct
               CSTACK = 00000000 ( 0000000C )
    -------------------------------------------------------------------------
<CODE> 3 (was CODE)
  Relative segment, address: 00015D94 - 00015DAF (0x1c bytes), align: 1
  Segment part 16.
           ENTRY                   ADDRESS         REF BY
           =====                   =======         ======
           sm_search_and_add_device_entity
                                   00015D94        Segment part 33 (sm_interface)
                                                   sm_acl_connection_request (sm_interface)
               calls direct
               CSTACK = 00000000 ( 00000008 )
    -------------------------------------------------------------------------
<CODE> 3 (was CODE)
  Relative segment, address: 00015630 - 0001565D (0x2e bytes), align: 1
  Segment part 13.
           ENTRY                   ADDRESS         REF BY
           =====                   =======         ======
           sm_delete_device_entity
                                   00015630        sm_purge_device_list_pl (sm_pl)
               calls direct
               CSTACK = 00000000 ( 00000010 )
    -------------------------------------------------------------------------
<CODE> 3 (was CODE)
  Relative segment, address: 0001614A - 0001615D (0x14 bytes), align: 1
  Segment part 14.            Intra module refs:   sm_delete_device_entity
                                                   sm_set_device_valid_flag
    -------------------------------------------------------------------------
<CODE> 1 (was CODE)
  Relative segment, address: B99C - BB95 (0x1fa bytes), align: 1
  Segment part 3.             Intra module refs:   sm_state_machine
           ENTRY                   ADDRESS         REF BY
           =====                   =======         ======
           sm_context_state_machine
                                   B99C            sm_access_request (sm_interface)
               calls direct and indirect
               CSTACK = 00000000 ( 00000026 )
    -------------------------------------------------------------------------
<CODE> 3 (was CODE)
  Relative segment, address: 00014B8C - 00014BCF (0x44 bytes), align: 1
  Segment part 2.             Intra module refs:   sm_context_state_machine
           ENTRY                   ADDRESS         REF BY
           =====                   =======         ======
           sm_is_link_key_sufficient
                                   00014B8C 
               CSTACK = 00000000 ( 0000000C )

    -------------------------------------------------------------------------
  LIBRARY MODULE, NAME : sm_init

  SEGMENTS IN THE MODULE
  ======================
DATA20_Z
  Relative segment, address: 3210 - 3213 (0x4 bytes), align: 1
  Segment part 3.             Intra module refs:   sm_bt_init
                                                   sm_init
           ENTRY                   ADDRESS         REF BY
           =====                   =======         ======
           sm_mutex                3210            BT_sm_set_local_io_cap (sm_ssp_pl)
                                                   Segment part 14 (sm_interface)
                                                   Segment part 17 (sm_interface)
                                                   Segment part 19 (sm_api)
                                                   Segment part 22 (sm_interface)
                                                   Segment part 24 (sm_api)
                                                   Segment part 4 (sm_ui)
                                                   Segment part 5 (sm_ui)
                                                   Segment part 9 (sm_ssp_pl)
                                                   sm_access_request (sm_interface)
                                                   sm_acl_connection_complete (sm_interface)
                                                   sm_context_state_machine (sm_core)
                                                   sm_link_key_pin_code_request (sm_interface)
                                                   sm_state_machine (sm_core)
    -------------------------------------------------------------------------
DATA20_Z
  Relative segment, address: 3214 - 3217 (0x4 bytes), align: 1
  Segment part 4.             Intra module refs:   sm_bt_init
           ENTRY                   ADDRESS         REF BY
           =====                   =======         ======
           sm_ui_notify            3214            BT_sm_register_user_interface (sm_ui)
                                                   sm_acl_connection_request (sm_interface)
                                                   sm_link_key_pin_code_request (sm_interface)
                                                   sm_user_conf_request (sm_interface)
                                                   sm_user_passkey_notification (sm_interface)
                                                   sm_user_passkey_request (sm_interface)
    -------------------------------------------------------------------------
DATA20_Z
  Relative segment, address: 3FE4 - 3FE7 (0x4 bytes), align: 0
  Segment part 5.             Intra module refs:   sm_bt_init
           ENTRY                   ADDRESS         REF BY
           =====                   =======         ======
           sm_default_pin          3FE4 
    -------------------------------------------------------------------------
DATA20_Z
  Relative segment, address: 3FE8 - 3FE8 (0x1 bytes), align: 0
  Segment part 6.             Intra module refs:   sm_bt_init
           ENTRY                   ADDRESS         REF BY
           =====                   =======         ======
           sm_default_pin_length   3FE8 
    -------------------------------------------------------------------------
DATA20_Z
  Relative segment, address: 3FE9 - 3FE9 (0x1 bytes), align: 0
  Segment part 7.             Intra module refs:   sm_bt_init
           ENTRY                   ADDRESS         REF BY
           =====                   =======         ======
           sm_pairable_mode        3FE9            sm_access_request (sm_interface)
                                                   sm_io_capability_event (sm_interface)
                                                   sm_link_key_pin_code_request (sm_interface)
    -------------------------------------------------------------------------
DATA20_Z
  Relative segment, address: 3218 - 328B (0x74 bytes), align: 1
  Segment part 8.             Intra module refs:   sm_bt_init
           ENTRY                   ADDRESS         REF BY
           =====                   =======         ======
           sm_devices              3218            Segment part 12 (sm_interface)
                                                   Segment part 14 (sm_core)
                                                   Segment part 26 (sm_interface)
                                                   Segment part 31 (sm_interface)
                                                   sm_acl_connection_complete (sm_interface)
                                                   sm_acl_connection_request (sm_interface)
                                                   sm_acl_create_connection (sm_interface)
                                                   sm_context_state_machine (sm_core)
                                                   sm_create_device_entity (sm_core)
                                                   sm_delete_device_entity (sm_core)
                                                   sm_device_link_key (sm_api)
                                                   sm_get_io_capability_pl (sm_ssp_pl)
                                                   sm_get_remote_oob_data_pl (sm_ssp_pl)
                                                   sm_hci_error_indication (sm_interface)
                                                   sm_hci_proc_complete (sm_interface)
                                                   sm_init_device_attr_pl (sm_pl)
                                                   sm_io_capability_event (sm_interface)
                                                   sm_is_link_key_sufficient (sm_core)
                                                   sm_link_key_notification (sm_interface)
                                                   sm_link_key_pin_code_request (sm_interface)
                                                   sm_purge_device_list_pl (sm_pl)
                                                   sm_search_device_entity (sm_core)
                                                   sm_set_device_attr_pl (sm_pl)
                                                   sm_set_device_valid_flag (sm_core)
                                                   sm_storage_read (sm_storage)
                                                   sm_storage_write (sm_storage)
                                                   sm_ui_notification_request_reply (sm_ui)
                                                   sm_update_device_attr_pl (sm_pl)
    -------------------------------------------------------------------------
DATA20_Z
  Relative segment, address: 328C - 328D (0x2 bytes), align: 1
  Segment part 9.             Intra module refs:   sm_bt_init
           ENTRY                   ADDRESS         REF BY
           =====                   =======         ======
           sm_authentication_handle
                                   328C            sm_context_state_machine (sm_core)
                                                   sm_hci_error_indication (sm_interface)
    -------------------------------------------------------------------------
DATA20_Z
  Relative segment, address: 328E - 328F (0x2 bytes), align: 1
  Segment part 10.            Intra module refs:   sm_bt_init
           ENTRY                   ADDRESS         REF BY
           =====                   =======         ======
           sm_encryption_handle    328E            sm_context_state_machine (sm_core)
                                                   sm_hci_error_indication (sm_interface)
    -------------------------------------------------------------------------
DATA20_Z
  Relative segment, address: 3FEA - 3FEA (0x1 bytes), align: 0
  Segment part 11.            Intra module refs:   sm_bt_init
           ENTRY                   ADDRESS         REF BY
           =====                   =======         ======
           sm_authentication_service
                                   3FEA            sm_context_state_machine (sm_core)
                                                   sm_get_io_capability_pl (sm_ssp_pl)
                                                   sm_hci_proc_complete (sm_interface)
    -------------------------------------------------------------------------
DATA20_Z
  Relative segment, address: 3290 - 32A7 (0x18 bytes), align: 1
  Segment part 12.            Intra module refs:   sm_bt_init
           ENTRY                   ADDRESS         REF BY
           =====                   =======         ======
           sm_services             3290            BT_sm_add_service (sm_api)
                                                   Segment part 3 (sm_interface)
                                                   Segment part 7 (sm_api)
                                                   Segment part 8 (sm_api)
                                                   sm_access_request (sm_interface)
                                                   sm_context_state_machine (sm_core)
                                                   sm_get_io_capability_pl (sm_ssp_pl)
                                                   sm_is_link_key_sufficient (sm_core)
                                                   sm_search_service_entity (sm_core)
                                                   sm_state_machine (sm_core)
    -------------------------------------------------------------------------
DATA20_Z
  Relative segment, address: 32A8 - 32B5 (0xe bytes), align: 1
  Segment part 13.            Intra module refs:   sm_bt_init
           ENTRY                   ADDRESS         REF BY
           =====                   =======         ======
           sm_contexts             32A8            sm_access_request (sm_interface)
                                                   sm_context_state_machine (sm_core)
                                                   sm_hci_proc_complete (sm_interface)
                                                   sm_state_machine (sm_core)
                                                   sm_ui_notification_bh (sm_ui)
    -------------------------------------------------------------------------
<CODE> 3 (was CODE)
  Relative segment, address: 00016A1A - 00016A23 (0xa bytes), align: 1
  Segment part 16.
           ENTRY                   ADDRESS         REF BY
           =====                   =======         ======
           sm_init                 00016A1A        ethermind_init_upper_pl (BT_common_pl)
               calls direct
               CSTACK = 00000000 ( 00000004 )
    -------------------------------------------------------------------------
<CODE> 3 (was CODE)
  Relative segment, address: 000127B6 - 0001283F (0x8a bytes), align: 1
  Segment part 15.
           ENTRY                   ADDRESS         REF BY
           =====                   =======         ======
           sm_bt_init              000127B6        bluetooth_on_upper_pl (BT_common_pl)
               calls direct
               CSTACK = 00000000 ( 00000004 )
    -------------------------------------------------------------------------
DATA20_C
  Relative segment, address: 000203FF - 00020403 (0x5 bytes), align: 0
  Segment part 2.             Intra module refs:   sm_bt_init

    -------------------------------------------------------------------------
  LIBRARY MODULE, NAME : sm_interface

  SEGMENTS IN THE MODULE
  ======================
<CODE> 1 (was CODE)
  Relative segment, address: 7510 - 751B (0xc bytes), align: 1
  Segment part 4.             Intra module refs:   sm_access_request
    -------------------------------------------------------------------------
<CODE> 1 (was CODE)
  Relative segment, address: 751C - 751D (0x2 bytes), align: 1
  Segment part 5.             Intra module refs:   sm_access_request
    -------------------------------------------------------------------------
<CODE> 1 (was CODE)
  Relative segment, address: 751E - 7525 (0x8 bytes), align: 1
  Segment part 6.             Intra module refs:   Segment part 22
                                                   Segment part 5
                                                   sm_acl_connection_complete
                                                   sm_link_key_pin_code_request
    -------------------------------------------------------------------------
<CODE> 1 (was CODE)
  Relative segment, address: 7526 - 7577 (0x52 bytes), align: 1
  Segment part 7.
           ENTRY                   ADDRESS         REF BY
           =====                   =======         ======
           sm_remote_oob_data_request
                                   7526            hci_remote_oob_data_request_event (hci_events)
               calls direct
               CSTACK = 00000000 ( 00000032 )
    -------------------------------------------------------------------------
<CODE> 1 (was CODE)
  Relative segment, address: 7578 - 758D (0x16 bytes), align: 1
  Segment part 8.
           ENTRY                   ADDRESS         REF BY
           =====                   =======         ======
           sm_user_passkey_notification
                                   7578            hci_user_passkey_notification_event (hci_events)
               calls indirect
               CSTACK = 00000000 ( 00000004 )
    -------------------------------------------------------------------------
<CODE> 1 (was CODE)
  Relative segment, address: 758E - 75A5 (0x18 bytes), align: 1
  Segment part 9.
           ENTRY                   ADDRESS         REF BY
           =====                   =======         ======
           sm_user_passkey_request
                                   758E            hci_user_passkey_request_event (hci_events)
               calls indirect
               CSTACK = 00000000 ( 00000004 )
    -------------------------------------------------------------------------
<CODE> 1 (was CODE)
  Relative segment, address: 75A6 - 75FD (0x58 bytes), align: 1
  Segment part 10.
           ENTRY                   ADDRESS         REF BY
           =====                   =======         ======
           sm_user_conf_request    75A6            hci_user_confirmation_request_event (hci_events)
               calls direct and indirect
               CSTACK = 00000000 ( 0000000C )
    -------------------------------------------------------------------------
<CODE> 1 (was CODE)
  Relative segment, address: 75FE - 76AB (0xae bytes), align: 1
  Segment part 11.
           ENTRY                   ADDRESS         REF BY
           =====                   =======         ======
           sm_io_capability_event
                                   75FE            hci_io_capability_event (hci_events)
               calls direct
               CSTACK = 00000000 ( 00000020 )
    -------------------------------------------------------------------------
<CODE> 1 (was CODE)
  Relative segment, address: 76AC - 76B1 (0x6 bytes), align: 1
  Segment part 12.            Intra module refs:   sm_acl_create_connection
                                                   sm_io_capability_event
    -------------------------------------------------------------------------
<CODE> 1 (was CODE)
  Relative segment, address: 76B2 - 76B9 (0x8 bytes), align: 1
  Segment part 13.            Intra module refs:   Segment part 12
                                                   sm_hci_error_indication
                                                   sm_hci_proc_complete
    -------------------------------------------------------------------------
<CODE> 1 (was CODE)
  Relative segment, address: 76BA - 76CF (0x16 bytes), align: 1
  Segment part 14.            Intra module refs:   sm_io_capability_event
                                                   sm_link_key_notification
                                                   sm_remote_oob_data_request
    -------------------------------------------------------------------------
<CODE> 1 (was CODE)
  Relative segment, address: 76D0 - 76D7 (0x8 bytes), align: 1
  Segment part 15.            Intra module refs:   sm_access_request
                                                   sm_acl_connection_complete
                                                   sm_io_capability_event
    -------------------------------------------------------------------------
<CODE> 1 (was CODE)
  Relative segment, address: 76D8 - 76D9 (0x2 bytes), align: 1
  Segment part 16.            Intra module refs:   sm_acl_connection_request
                                                   sm_acl_create_connection
    -------------------------------------------------------------------------
<CODE> 1 (was CODE)
  Relative segment, address: 76DA - 76DD (0x4 bytes), align: 1
  Segment part 17.            Intra module refs:   Segment part 16
                                                   sm_hci_proc_complete
                                                   sm_io_capability_event
                                                   sm_link_key_notification
                                                   sm_remote_oob_data_request
                                                   sm_user_conf_request
    -------------------------------------------------------------------------
<CODE> 1 (was CODE)
  Relative segment, address: 76DE - 76E5 (0x8 bytes), align: 1
  Segment part 18.            Intra module refs:   Segment part 17
                                                   sm_access_request
                                                   sm_acl_connection_complete
                                                   sm_link_key_pin_code_request
    -------------------------------------------------------------------------
<CODE> 1 (was CODE)
  Relative segment, address: 76E6 - 76E9 (0x4 bytes), align: 1
  Segment part 19.
           ENTRY                   ADDRESS         REF BY
           =====                   =======         ======
           sm_command_complete_event
                                   76E6            Segment part 18 (hci_events)
               CSTACK = 00000000 ( 00000004 )
    -------------------------------------------------------------------------
<CODE> 1 (was CODE)
  Relative segment, address: 76EA - 77F3 (0x10a bytes), align: 1
  Segment part 20.            Intra module refs:   sm_hci_error_indication
           ENTRY                   ADDRESS         REF BY
           =====                   =======         ======
           sm_hci_proc_complete    76EA            hci_auth_complete_encrypt_change_event (hci_events)
                                                   hci_disconnection_complete_event (hci_disconnect)
               calls direct
               CSTACK = 00000000 ( 0000001C )
    -------------------------------------------------------------------------
<CODE> 1 (was CODE)
  Relative segment, address: 77F4 - 77FB (0x8 bytes), align: 1
  Segment part 21.            Intra module refs:   sm_hci_error_indication
                                                   sm_hci_proc_complete
                                                   sm_io_capability_event
    -------------------------------------------------------------------------
<CODE> 1 (was CODE)
  Relative segment, address: 77FC - 7801 (0x6 bytes), align: 1
  Segment part 22.            Intra module refs:   sm_acl_connection_request
                                                   sm_acl_create_connection
                                                   sm_hci_proc_complete
                                                   sm_user_conf_request
    -------------------------------------------------------------------------
<CODE> 1 (was CODE)
  Relative segment, address: 7802 - 78B7 (0xb6 bytes), align: 1
  Segment part 23.
           ENTRY                   ADDRESS         REF BY
           =====                   =======         ======
           sm_hci_error_indication
                                   7802            hci_command_status_event (hci_events)
               calls direct
               CSTACK = 00000000 ( 0000000C )
    -------------------------------------------------------------------------
<CODE> 1 (was CODE)
  Relative segment, address: 78B8 - 7925 (0x6e bytes), align: 1
  Segment part 24.
           ENTRY                   ADDRESS         REF BY
           =====                   =======         ======
           sm_link_key_notification
                                   78B8            hci_link_key_notification_event (hci_events)
               calls direct
               CSTACK = 00000000 ( 0000001C )
    -------------------------------------------------------------------------
<CODE> 1 (was CODE)
  Relative segment, address: 7926 - 7A09 (0xe4 bytes), align: 1
  Segment part 25.
           ENTRY                   ADDRESS         REF BY
           =====                   =======         ======
           sm_link_key_pin_code_request
                                   7926            hci_link_key_pin_code_request_event (hci_events)
               calls direct and indirect
               CSTACK = 00000000 ( 0000001C )
    -------------------------------------------------------------------------
<CODE> 1 (was CODE)
  Relative segment, address: 7A0A - 7A17 (0xe bytes), align: 1
  Segment part 26.            Intra module refs:   sm_io_capability_event
                                                   sm_link_key_pin_code_request
    -------------------------------------------------------------------------
<CODE> 1 (was CODE)
  Relative segment, address: 7A18 - 7A1B (0x4 bytes), align: 1
  Segment part 27.            Intra module refs:   sm_acl_connection_complete
                                                   sm_link_key_pin_code_request
    -------------------------------------------------------------------------
<CODE> 1 (was CODE)
  Relative segment, address: 7A1C - 7A1F (0x4 bytes), align: 1
  Segment part 28.            Intra module refs:   Segment part 21
                                                   Segment part 27
                                                   sm_acl_connection_complete
                                                   sm_acl_connection_request
                                                   sm_acl_create_connection
                                                   sm_hci_proc_complete
                                                   sm_io_capability_event
                                                   sm_link_key_notification
                                                   sm_link_key_pin_code_request
    -------------------------------------------------------------------------
<CODE> 1 (was CODE)
  Relative segment, address: 7A20 - 7A25 (0x6 bytes), align: 1
  Segment part 29.            Intra module refs:   Segment part 28
                                                   Segment part 4
    -------------------------------------------------------------------------
<CODE> 3 (was CODE)
  Relative segment, address: 00013252 - 000132CB (0x7a bytes), align: 1
  Segment part 34.
           ENTRY                   ADDRESS         REF BY
           =====                   =======         ======
           sm_acl_connection_request
                                   00013252        hci_connection_request_event (hci_connect)
               calls direct and indirect
               CSTACK = 00000000 ( 0000000C )
    -------------------------------------------------------------------------
<CODE> 3 (was CODE)
  Relative segment, address: 0001479C - 000147E7 (0x4c bytes), align: 1
  Segment part 32.
           ENTRY                   ADDRESS         REF BY
           =====                   =======         ======
           sm_acl_create_connection
                                   0001479C        hci_command_tx_bh (hci_command_queue)
               calls direct
               CSTACK = 00000000 ( 0000000C )
    -------------------------------------------------------------------------
<CODE> 3 (was CODE)
  Relative segment, address: 00016724 - 00016731 (0xe bytes), align: 1
  Segment part 33.            Intra module refs:   sm_acl_create_connection
                                                   sm_link_key_notification
    -------------------------------------------------------------------------
<CODE> 2 (was CODE)
  Relative segment, address: F6BE - F7B5 (0xf8 bytes), align: 1
  Segment part 30.
           ENTRY                   ADDRESS         REF BY
           =====                   =======         ======
           sm_acl_connection_complete
                                   F6BE            hci_connection_complete_event (hci_connect)
               calls direct
               CSTACK = 00000000 ( 00000024 )
    -------------------------------------------------------------------------
<CODE> 3 (was CODE)
  Relative segment, address: 00016652 - 0001665F (0xe bytes), align: 1
  Segment part 31.            Intra module refs:   sm_acl_connection_complete
    -------------------------------------------------------------------------
<CODE> 1 (was CODE)
  Relative segment, address: C850 - C9FD (0x1ae bytes), align: 1
  Segment part 2.
           ENTRY                   ADDRESS         REF BY
           =====                   =======         ======
           sm_access_request       C850            l2cap_sm_access_request (l2cap_sm)
                                                   rfcomm_handle_sabm_with_sm (rfcomm_sm)
               calls direct
               CSTACK = 00000000 ( 00000030 )
    -------------------------------------------------------------------------
<CODE> 3 (was CODE)
  Relative segment, address: 00015F04 - 00015F1B (0x18 bytes), align: 1
  Segment part 3.             Intra module refs:   sm_access_request

    -------------------------------------------------------------------------
  LIBRARY MODULE, NAME : sm_ui

  SEGMENTS IN THE MODULE
  ======================
<CODE> 3 (was CODE)
  Relative segment, address: 00016B6E - 00016B75 (0x8 bytes), align: 1
  Segment part 4.             Intra module refs:   BT_sm_register_user_interface
                                                   sm_ui_notification_bh
                                                   sm_ui_notification_request_reply
    -------------------------------------------------------------------------
<CODE> 3 (was CODE)
  Relative segment, address: 000168D6 - 000168E1 (0xc bytes), align: 1
  Segment part 5.             Intra module refs:   BT_sm_register_user_interface
                                                   sm_ui_notification_bh
                                                   sm_ui_notification_request_reply
    -------------------------------------------------------------------------
<CODE> 3 (was CODE)
  Relative segment, address: 000154E0 - 00015511 (0x32 bytes), align: 1
  Segment part 6.
           ENTRY                   ADDRESS         REF BY
           =====                   =======         ======
           BT_sm_register_user_interface
                                   000154E0        sdk_bluetooth_on_complete (appl_cb)
               calls direct
               CSTACK = 00000000 ( 00000008 )
    -------------------------------------------------------------------------
<CODE> 3 (was CODE)
  Relative segment, address: 00010AB4 - 00010B7B (0xc8 bytes), align: 1
  Segment part 3.
           ENTRY                   ADDRESS         REF BY
           =====                   =======         ======
           sm_ui_notification_request_reply
                                   00010AB4        appl_sm_service_cb (appl_spp)
                                                   sdk_sm_ui_notify_cb (appl_cb)
               calls direct
               CSTACK = 00000000 ( 00000024 )
    -------------------------------------------------------------------------
<CODE> 3 (was CODE)
  Relative segment, address: 00014704 - 0001474F (0x4c bytes), align: 1
  Segment part 2.             Intra module refs:   sm_ui_notification_request_reply
           ENTRY                   ADDRESS         REF BY
           =====                   =======         ======
           sm_ui_notification_bh   00014704 
               calls direct
               CSTACK = 00000000 ( 00000014 )

    -------------------------------------------------------------------------
  LIBRARY MODULE, NAME : spp

  SEGMENTS IN THE MODULE
  ======================
DATA20_Z
  Relative segment, address: 32B6 - 32B9 (0x4 bytes), align: 1
  Segment part 2.             Intra module refs:   BT_spp_connect
                                                   BT_spp_init
                                                   Segment part 20
                                                   Segment part 33
                                                   Segment part 37
                                                   spp_rfcomm_callback
    -------------------------------------------------------------------------
DATA20_Z
  Relative segment, address: 3FEB - 3FEB (0x1 bytes), align: 0
  Segment part 3.             Intra module refs:   BT_spp_connect
                                                   BT_spp_init
                                                   BT_spp_start
                                                   spp_disconnect_handler
    -------------------------------------------------------------------------
DATA20_Z
  Relative segment, address: 3FEC - 3FEC (0x1 bytes), align: 0
  Segment part 4.             Intra module refs:   BT_spp_connect
                                                   BT_spp_init
                                                   BT_spp_start
                                                   spp_accept
    -------------------------------------------------------------------------
DATA20_Z
  Relative segment, address: 32BA - 32D9 (0x20 bytes), align: 1
  Segment part 5.             Intra module refs:   BT_spp_connect
                                                   BT_spp_disconnect
                                                   BT_spp_send
                                                   Segment part 22
                                                   Segment part 28
                                                   spp_accept
                                                   spp_disconnect_handler
                                                   spp_get_entity_handle
                                                   spp_init_entity_list
                                                   spp_open_handler
                                                   spp_rfcomm_callback
    -------------------------------------------------------------------------
DATA20_Z
  Relative segment, address: 32DA - 32DD (0x4 bytes), align: 1
  Segment part 6.             Intra module refs:   BT_spp_init
                                                   Segment part 19
                                                   spp_rfcomm_callback
    -------------------------------------------------------------------------
DATA20_Z
  Relative segment, address: 32DE - 32E1 (0x4 bytes), align: 1
  Segment part 7.             Intra module refs:   BT_spp_connect
                                                   BT_spp_init
                                                   spp_accept
    -------------------------------------------------------------------------
DATA20_Z
  Relative segment, address: 3FED - 3FED (0x1 bytes), align: 0
  Segment part 8.             Intra module refs:   BT_spp_connect
                                                   BT_spp_init
                                                   spp_accept
                                                   spp_accept_handler
    -------------------------------------------------------------------------
DATA20_Z
  Relative segment, address: 3FEE - 3FEE (0x1 bytes), align: 0
  Segment part 9.             Intra module refs:   BT_spp_connect
                                                   BT_spp_init
                                                   Segment part 22
                                                   spp_disconnect_handler
    -------------------------------------------------------------------------
<CODE> 3 (was CODE)
  Relative segment, address: 000142E0 - 00014333 (0x54 bytes), align: 1
  Segment part 39.
           ENTRY                   ADDRESS         REF BY
           =====                   =======         ======
           BT_spp_init             000142E0        main (main)
               calls direct
               CSTACK = 00000000 ( 00000008 )
    -------------------------------------------------------------------------
<CODE> 1 (was CODE)
  Relative segment, address: B798 - B799 (0x2 bytes), align: 1
  Segment part 26.            Intra module refs:   spp_rfcomm_callback
    -------------------------------------------------------------------------
<CODE> 1 (was CODE)
  Relative segment, address: B79A - B7A1 (0x8 bytes), align: 1
  Segment part 27.            Intra module refs:   Segment part 26
                                                   Segment part 33
                                                   Segment part 35
    -------------------------------------------------------------------------
<CODE> 1 (was CODE)
  Relative segment, address: B7A2 - B7BD (0x1c bytes), align: 1
  Segment part 28.            Intra module refs:   spp_rfcomm_callback
    -------------------------------------------------------------------------
<CODE> 1 (was CODE)
  Relative segment, address: B7BE - B831 (0x74 bytes), align: 1
  Segment part 29.
           ENTRY                   ADDRESS         REF BY
           =====                   =======         ======
           BT_spp_send             B7BE            appl_spp_notify_cb (appl_spp)
                                                   appl_spp_write (appl_spp)
               calls direct
               CSTACK = 00000000 ( 00000014 )
    -------------------------------------------------------------------------
<CODE> 1 (was CODE)
  Relative segment, address: B832 - B897 (0x66 bytes), align: 1
  Segment part 30.
           ENTRY                   ADDRESS         REF BY
           =====                   =======         ======
           BT_spp_disconnect       B832            appl_spp_disconnect (appl_spp)
               calls direct
               CSTACK = 00000000 ( 0000000C )
    -------------------------------------------------------------------------
<CODE> 1 (was CODE)
  Relative segment, address: B898 - B8A9 (0x12 bytes), align: 1
  Segment part 31.            Intra module refs:   BT_spp_disconnect
                                                   BT_spp_send
    -------------------------------------------------------------------------
<CODE> 1 (was CODE)
  Relative segment, address: B8AA - B8AD (0x4 bytes), align: 1
  Segment part 32.            Intra module refs:   spp_disconnect_handler
                                                   spp_open_handler
    -------------------------------------------------------------------------
<CODE> 1 (was CODE)
  Relative segment, address: B8AE - B8B3 (0x6 bytes), align: 1
  Segment part 33.            Intra module refs:   BT_spp_disconnect
                                                   BT_spp_send
                                                   BT_spp_start
                                                   Segment part 32
                                                   spp_accept_handler
                                                   spp_disconnect_handler
                                                   spp_read_ind_handler
    -------------------------------------------------------------------------
<CODE> 1 (was CODE)
  Relative segment, address: B8B4 - B997 (0xe4 bytes), align: 1
  Segment part 34.
           ENTRY                   ADDRESS         REF BY
           =====                   =======         ======
           BT_spp_connect          B8B4            appl_spp_connect (appl_spp)
               calls direct
               CSTACK = 00000000 ( 00000014 )
    -------------------------------------------------------------------------
<CODE> 1 (was CODE)
  Relative segment, address: B998 - B99B (0x4 bytes), align: 1
  Segment part 35.            Intra module refs:   BT_spp_connect
    -------------------------------------------------------------------------
<CODE> 3 (was CODE)
  Relative segment, address: 000168BE - 000168C9 (0xc bytes), align: 1
  Segment part 37.            Intra module refs:   BT_spp_disconnect
                                                   BT_spp_send
                                                   BT_spp_start
    -------------------------------------------------------------------------
<CODE> 3 (was CODE)
  Relative segment, address: 000147E8 - 00014833 (0x4c bytes), align: 1
  Segment part 38.
           ENTRY                   ADDRESS         REF BY
           =====                   =======         ======
           BT_spp_start            000147E8        appl_spp_start (appl_spp)
               calls direct
               CSTACK = 00000000 ( 00000008 )
    -------------------------------------------------------------------------
<CODE> 3 (was CODE)
  Relative segment, address: 00015FF4 - 00015FF7 (0x4 bytes), align: 1
  Segment part 14.            Intra module refs:   spp_accept_handler
                                                   spp_disconnect_handler
                                                   spp_open_handler
    -------------------------------------------------------------------------
<CODE> 3 (was CODE)
  Relative segment, address: 00015FF8 - 00016009 (0x12 bytes), align: 1
  Segment part 15.            Intra module refs:   BT_spp_connect
                                                   Segment part 14
                                                   spp_accept
                                                   spp_rfcomm_callback
    -------------------------------------------------------------------------
<CODE> 1 (was CODE)
  Relative segment, address: E906 - EA1F (0x11a bytes), align: 1
  Segment part 25.            Intra module refs:   BT_spp_connect
                                                   Segment part 22
                                                   spp_accept
           ENTRY                   ADDRESS         REF BY
           =====                   =======         ======
           spp_rfcomm_callback     E906 
               calls direct and indirect
               CSTACK = 00000000 ( 00000032 )
    -------------------------------------------------------------------------
<CODE> 3 (was CODE)
  Relative segment, address: 0001693E - 00016947 (0xa bytes), align: 1
  Segment part 13.            Intra module refs:   spp_accept
                                                   spp_disconnect_handler
                                                   spp_init_entity_list
    -------------------------------------------------------------------------
<CODE> 3 (was CODE)
  Relative segment, address: 000151B2 - 000151E9 (0x38 bytes), align: 1
  Segment part 24.            Intra module refs:   BT_spp_init
           ENTRY                   ADDRESS         REF BY
           =====                   =======         ======
           spp_init_entity_list    000151B2 
               calls direct
               CSTACK = 00000000 ( 00000008 )
    -------------------------------------------------------------------------
<CODE> 3 (was CODE)
  Relative segment, address: 00012BEC - 00012C6F (0x84 bytes), align: 1
  Segment part 23.            Intra module refs:   spp_rfcomm_callback
           ENTRY                   ADDRESS         REF BY
           =====                   =======         ======
           spp_get_entity_handle   00012BEC 
               calls direct
               CSTACK = 00000000 ( 0000001C )
    -------------------------------------------------------------------------
<CODE> 3 (was CODE)
  Relative segment, address: 00016B46 - 00016B4D (0x8 bytes), align: 1
  Segment part 19.            Intra module refs:   spp_accept_handler
                                                   spp_disconnect_handler
                                                   spp_open_handler
                                                   spp_read_ind_handler
    -------------------------------------------------------------------------
<CODE> 3 (was CODE)
  Relative segment, address: 00016B36 - 00016B3D (0x8 bytes), align: 1
  Segment part 20.            Intra module refs:   spp_accept_handler
                                                   spp_disconnect_handler
                                                   spp_open_handler
                                                   spp_read_ind_handler
    -------------------------------------------------------------------------
<CODE> 3 (was CODE)
  Relative segment, address: 00014018 - 00014073 (0x5c bytes), align: 1
  Segment part 21.            Intra module refs:   spp_rfcomm_callback
           ENTRY                   ADDRESS         REF BY
           =====                   =======         ======
           spp_accept_handler      00014018 
               calls direct and indirect
               CSTACK = 00000000 ( 0000001A )
    -------------------------------------------------------------------------
<CODE> 3 (was CODE)
  Relative segment, address: 0001397C - 000139E3 (0x68 bytes), align: 1
  Segment part 22.            Intra module refs:   spp_accept_handler
                                                   spp_open_handler
    -------------------------------------------------------------------------
<CODE> 3 (was CODE)
  Relative segment, address: 00014388 - 000143DB (0x54 bytes), align: 1
  Segment part 17.            Intra module refs:   spp_rfcomm_callback
           ENTRY                   ADDRESS         REF BY
           =====                   =======         ======
           spp_open_handler        00014388 
               calls direct and indirect
               CSTACK = 00000000 ( 0000001A )
    -------------------------------------------------------------------------
<CODE> 3 (was CODE)
  Relative segment, address: 00016786 - 00016793 (0xe bytes), align: 1
  Segment part 18.            Intra module refs:   spp_open_handler
                                                   spp_read_ind_handler
    -------------------------------------------------------------------------
<CODE> 3 (was CODE)
  Relative segment, address: 00015372 - 000153A9 (0x38 bytes), align: 1
  Segment part 16.            Intra module refs:   spp_rfcomm_callback
           ENTRY                   ADDRESS         REF BY
           =====                   =======         ======
           spp_read_ind_handler    00015372 
               calls direct and indirect
               CSTACK = 00000000 ( 0000001A )
    -------------------------------------------------------------------------
<CODE> 3 (was CODE)
  Relative segment, address: 00010D08 - 00010DCB (0xc4 bytes), align: 1
  Segment part 12.            Intra module refs:   spp_rfcomm_callback
           ENTRY                   ADDRESS         REF BY
           =====                   =======         ======
           spp_disconnect_handler
                                   00010D08 
               calls direct and indirect
               CSTACK = 00000000 ( 00000022 )
    -------------------------------------------------------------------------
<CODE> 3 (was CODE)
  Relative segment, address: 00012078 - 00012119 (0xa2 bytes), align: 1
  Segment part 11.            Intra module refs:   BT_spp_connect
                                                   BT_spp_start
                                                   Segment part 32
                                                   spp_accept_handler
           ENTRY                   ADDRESS         REF BY
           =====                   =======         ======
           spp_accept              00012078 
               calls direct
               CSTACK = 00000000 ( 00000014 )

    -------------------------------------------------------------------------
  LIBRARY MODULE, NAME : write_task

  SEGMENTS IN THE MODULE
  ======================
DATA20_Z
  Relative segment, address: 3FEF - 3FEF (0x1 bytes), align: 0
  Segment part 2.             Intra module refs:   Segment part 21
                                                   write_task_enqueue
                                                   write_task_init
                                                   write_task_start_routine
                                                   wt_service_queue
           ENTRY                   ADDRESS         REF BY
           =====                   =======         ======
           wt_state                3FEF 
    -------------------------------------------------------------------------
DATA20_Z
  Relative segment, address: 32E2 - 3499 (0x1b8 bytes), align: 1
  Segment part 3.             Intra module refs:   Segment part 24
                                                   write_task_init
    -------------------------------------------------------------------------
DATA20_Z
  Relative segment, address: 349A - 35A1 (0x108 bytes), align: 1
  Segment part 4.             Intra module refs:   Segment part 24
                                                   write_task_init
    -------------------------------------------------------------------------
DATA20_Z
  Relative segment, address: 35A2 - 3759 (0x1b8 bytes), align: 1
  Segment part 5.             Intra module refs:   Segment part 24
                                                   write_task_init
    -------------------------------------------------------------------------
DATA20_Z
  Relative segment, address: 375A - 3771 (0x18 bytes), align: 1
  Segment part 6.             Intra module refs:   write_task_enqueue
                                                   write_task_init
                                                   wt_service_queue
    -------------------------------------------------------------------------
DATA20_Z
  Relative segment, address: 3772 - 3775 (0x4 bytes), align: 1
  Segment part 7.             Intra module refs:   Segment part 24
                                                   write_task_enqueue
                                                   write_task_start_routine
                                                   wt_service_queue
    -------------------------------------------------------------------------
<CODE> 3 (was CODE)
  Relative segment, address: 00013B1C - 00013B83 (0x68 bytes), align: 1
  Segment part 23.
           ENTRY                   ADDRESS         REF BY
           =====                   =======         ======
           write_task_init         00013B1C        BT_ethermind_init (BT_common)
               calls direct
               CSTACK = 00000000 ( 00000008 )
    -------------------------------------------------------------------------
<CODE> 3 (was CODE)
  Relative segment, address: 0001501A - 00015055 (0x3c bytes), align: 1
  Segment part 24.            Intra module refs:   write_task_init
    -------------------------------------------------------------------------
<CODE> 3 (was CODE)
  Relative segment, address: 0001675C - 00016769 (0xe bytes), align: 1
  Segment part 13.            Intra module refs:   Segment part 22
                                                   write_task_enqueue
                                                   write_task_start_routine
    -------------------------------------------------------------------------
<CODE> 3 (was CODE)
  Relative segment, address: 00016B0E - 00016B15 (0x8 bytes), align: 1
  Segment part 17.            Intra module refs:   Segment part 19
                                                   write_task_enqueue
                                                   write_task_start_routine
                                                   wt_service_queue
    -------------------------------------------------------------------------
<CODE> 3 (was CODE)
  Relative segment, address: 00015E52 - 00015E59 (0x8 bytes), align: 1
  Segment part 19.            Intra module refs:   write_task_bt_init
    -------------------------------------------------------------------------
<CODE> 3 (was CODE)
  Relative segment, address: 00015E5A - 00015E6B (0x12 bytes), align: 1
  Segment part 20.
           ENTRY                   ADDRESS         REF BY
           =====                   =======         ======
           write_task_bt_init      00015E5A        BT_bluetooth_on (BT_common)
               calls direct
               CSTACK = 00000000 ( 00000004 )
    -------------------------------------------------------------------------
<CODE> 3 (was CODE)
  Relative segment, address: 00016740 - 0001674D (0xe bytes), align: 1
  Segment part 21.            Intra module refs:   write_task_bt_init
    -------------------------------------------------------------------------
<CODE> 3 (was CODE)
  Relative segment, address: 0001648E - 0001649D (0x10 bytes), align: 1
  Segment part 22.            Intra module refs:   write_task_bt_init
    -------------------------------------------------------------------------
<CODE> 3 (was CODE)
  Relative segment, address: 00016AF6 - 00016AFD (0x8 bytes), align: 1
  Segment part 11.            Intra module refs:   write_task_enqueue
                                                   write_task_start_routine
                                                   wt_service_queue
    -------------------------------------------------------------------------
<CODE> 3 (was CODE)
  Relative segment, address: 00011302 - 000113BB (0xba bytes), align: 1
  Segment part 12.
           ENTRY                   ADDRESS         REF BY
           =====                   =======         ======
           write_task_enqueue      00011302        hci_common_api_handler (hci_commands)
                                                   hci_trigger_command_tx (hci_command_queue)
                                                   l2cap_schedule_data_tx (l2cap_lmp)
                                                   rfcomm_common_api_handler (rfcomm_api)
                                                   sdp_api_req_handler (sdp_api)
                                                   sm_ui_notification_request_reply (sm_ui)
               calls direct
               CSTACK = 00000000 ( 0000001C )
    -------------------------------------------------------------------------
<CODE> 3 (was CODE)
  Relative segment, address: 000166B4 - 000166C1 (0xe bytes), align: 1
  Segment part 14.            Intra module refs:   Segment part 16
                                                   write_task_enqueue
                                                   wt_service_queue
    -------------------------------------------------------------------------
<CODE> 3 (was CODE)
  Relative segment, address: 00016852 - 0001685D (0xc bytes), align: 1
  Segment part 15.            Intra module refs:   write_task_enqueue
    -------------------------------------------------------------------------
<CODE> 3 (was CODE)
  Relative segment, address: 00016AEE - 00016AF5 (0x8 bytes), align: 1
  Segment part 16.            Intra module refs:   Segment part 15
                                                   Segment part 9
    -------------------------------------------------------------------------
<CODE> 3 (was CODE)
  Relative segment, address: 00013B84 - 00013BEB (0x68 bytes), align: 1
  Segment part 10.
           ENTRY                   ADDRESS         REF BY
           =====                   =======         ======
           write_task_start_routine
                                   00013B84        wt_init_pl (write_task_pl)
               calls direct
               CSTACK = 00000000 ( 00000008 )
    -------------------------------------------------------------------------
<CODE> 3 (was CODE)
  Relative segment, address: 00010C42 - 00010D07 (0xc6 bytes), align: 1
  Segment part 8.             Intra module refs:   write_task_start_routine
           ENTRY                   ADDRESS         REF BY
           =====                   =======         ======
           wt_service_queue        00010C42 
               calls direct and indirect
               CSTACK = 00000000 ( 00000024 )
    -------------------------------------------------------------------------
<CODE> 3 (was CODE)
  Relative segment, address: 0001682E - 00016839 (0xc bytes), align: 1
  Segment part 9.             Intra module refs:   wt_service_queue

    *************************************************************************

  FILE NAME : C:\Texas Instruments\EZ430-RF2560 SDK\Beta_1_0\EZ430-RF2560_Applications\Source\bluetooth\build\msp430\spp\lib\iar\libspp_pl.r43
  LIBRARY MODULE, NAME : BT_common_pl

  SEGMENTS IN THE MODULE
  ======================
<CODE> 3 (was CODE)
  Relative segment, address: 00016BF4 - 00016BF7 (0x4 bytes), align: 1
  Segment part 7.
           ENTRY                   ADDRESS         REF BY
           =====                   =======         ======
           ethermind_init_lower_pl
                                   00016BF4        BT_ethermind_init (BT_common)
               calls direct
               CSTACK = 00000000 ( 00000004 )
    -------------------------------------------------------------------------
<CODE> 3 (was CODE)
  Relative segment, address: 000165AE - 000165BD (0x10 bytes), align: 1
  Segment part 6.
           ENTRY                   ADDRESS         REF BY
           =====                   =======         ======
           ethermind_init_upper_pl
                                   000165AE        BT_ethermind_init (BT_common)
               calls direct
               CSTACK = 00000000 ( 00000004 )
    -------------------------------------------------------------------------
<CODE> 3 (was CODE)
  Relative segment, address: 00016BF0 - 00016BF3 (0x4 bytes), align: 1
  Segment part 5.
           ENTRY                   ADDRESS         REF BY
           =====                   =======         ======
           bluetooth_on_lower_pl   00016BF0        BT_bluetooth_on (BT_common)
               calls direct
               CSTACK = 00000000 ( 00000004 )
    -------------------------------------------------------------------------
<CODE> 3 (was CODE)
  Relative segment, address: 000167FE - 00016809 (0xc bytes), align: 1
  Segment part 4.
           ENTRY                   ADDRESS         REF BY
           =====                   =======         ======
           bluetooth_on_upper_pl   000167FE        BT_bluetooth_on (BT_common)
               calls direct
               CSTACK = 00000000 ( 00000004 )

    -------------------------------------------------------------------------
  LIBRARY MODULE, NAME : BT_debug

  SEGMENTS IN THE MODULE
  ======================
<CODE> 3 (was CODE)
  Relative segment, address: 00016BF8 - 00016BF9 (0x2 bytes), align: 1
  Segment part 13.
           ENTRY                   ADDRESS         REF BY
           =====                   =======         ======
           BT_Init_Debug_Library   00016BF8        BT_ethermind_init (BT_common)
               CSTACK = 00000000 ( 00000004 )
    -------------------------------------------------------------------------
<CODE> 3 (was CODE)
  Relative segment, address: 00016BFC - 00016BFD (0x2 bytes), align: 1
  Segment part 12.
           ENTRY                   ADDRESS         REF BY
           =====                   =======         ======
           debug_bt_init           00016BFC        BT_bluetooth_on (BT_common)
               CSTACK = 00000000 ( 00000004 )

    -------------------------------------------------------------------------
  LIBRARY MODULE, NAME : BT_os

  SEGMENTS IN THE MODULE
  ======================
DATA20_Z
  Relative segment, address: 3776 - 3785 (0x10 bytes), align: 1
  Segment part 2.             Intra module refs:   BT_alloc_mem
                                                   BT_free_mem
                                                   BT_os_init
    -------------------------------------------------------------------------
DATA20_Z
  Relative segment, address: 3786 - 3789 (0x4 bytes), align: 1
  Segment part 3.             Intra module refs:   BT_os_init
           ENTRY                   ADDRESS         REF BY
           =====                   =======         ======
           xReadSemaphore          3786            BT_UART_ISR (msp430_uart)
                                                   ht_read_task_start_routine (read_task)
    -------------------------------------------------------------------------
DATA20_Z
  Relative segment, address: 378A - 378D (0x4 bytes), align: 1
  Segment part 4.             Intra module refs:   BT_os_init
           ENTRY                   ADDRESS         REF BY
           =====                   =======         ======
           xUserSemaphore          378A            PORT2_VECTOR_ISR (appl_menu_pl)
                                                   TIMER1_A0_ISR (user_task)
                                                   user_task_routine (user_task)
    -------------------------------------------------------------------------
<CODE> 3 (was CODE)
  Relative segment, address: 00012B68 - 00012BEB (0x84 bytes), align: 1
  Segment part 23.
           ENTRY                   ADDRESS         REF BY
           =====                   =======         ======
           BT_os_init              00012B68        main (main)
               calls direct
               CSTACK = 00000000 ( 00000008 )
    -------------------------------------------------------------------------
<CODE> 3 (was CODE)
  Relative segment, address: 00014430 - 00014483 (0x54 bytes), align: 1
  Segment part 22.
           ENTRY                   ADDRESS         REF BY
           =====                   =======         ======
           BT_thread_create        00014430        create_user_task (sdk_pl)
                                                   ht_read_task_create_pl (ht_read_task_pl)
                                                   wt_init_pl (write_task_pl)
               calls direct
               CSTACK = 00000000 ( 0000001E )
    -------------------------------------------------------------------------
DATA20_Z
  Relative segment, address: 3FF0 - 3FF0 (0x1 bytes), align: 0
  Segment part 5.             Intra module refs:   BT_thread_create
    -------------------------------------------------------------------------
<CODE> 3 (was CODE)
  Relative segment, address: 000133C0, align: 1
  Segment part 12.
           ENTRY                   ADDRESS         REF BY
           =====                   =======         ======
           BT_thread_cond_signal   000133C0        Segment part 22 (write_task)
                                                   write_task_enqueue (write_task)
               calls direct
               CSTACK = 00000000 ( 00000004 )
    -------------------------------------------------------------------------
<CODE> 3 (was CODE)
  Relative segment, address: 000133C0 - 000133CB (0xc bytes), align: 1
  Segment part 13.            Intra module refs:   BT_thread_cond_signal
                                                   BT_thread_mutex_unlock
    -------------------------------------------------------------------------
<CODE> 3 (was CODE)
  Relative segment, address: 000133CC - 000133D5 (0xa bytes), align: 1
  Segment part 14.            Intra module refs:   BT_thread_mutex_lock
                                                   Segment part 13
    -------------------------------------------------------------------------
<CODE> 3 (was CODE)
  Relative segment, address: 000133D6 - 00013409 (0x34 bytes), align: 1
  Segment part 15.
           ENTRY                   ADDRESS         REF BY
           =====                   =======         ======
           BT_thread_cond_wait     000133D6        write_task_start_routine (write_task)
               calls direct
               CSTACK = 00000000 ( 0000000C )
    -------------------------------------------------------------------------
<CODE> 3 (was CODE)
  Relative segment, address: 0001340A - 00013411 (0x8 bytes), align: 1
  Segment part 16.
           ENTRY                   ADDRESS         REF BY
           =====                   =======         ======
           BT_thread_cond_init     0001340A        wt_init_pl (write_task_pl)
               calls direct
               CSTACK = 00000000 ( 00000008 )
    -------------------------------------------------------------------------
<CODE> 3 (was CODE)
  Relative segment, address: 00013412 - 0001341D (0xc bytes), align: 1
  Segment part 17.            Intra module refs:   BT_thread_cond_init
                                                   BT_thread_mutex_init
    -------------------------------------------------------------------------
<CODE> 3 (was CODE)
  Relative segment, address: 0001341E - 0001341F (0x2 bytes), align: 1
  Segment part 18.
           ENTRY                   ADDRESS         REF BY
           =====                   =======         ======
           BT_thread_mutex_unlock
                                   0001341E        BT_hci_disconnect (hci_link_control_api)
                                                   Segment part 10 (db_sdp_interface)
                                                   Segment part 11 (hci_events)
                                                   Segment part 11 (l2cap_disconnect)
                                                   Segment part 11 (l2cap_lmp)
                                                   Segment part 12 (l2cap_config)
                                                   Segment part 12 (rfcomm_l2cap)
                                                   Segment part 12 (sdp_l2cap)
                                                   Segment part 14 (sm_interface)
                                                   Segment part 16 (rfcomm_bh)
                                                   Segment part 17 (write_task)
                                                   Segment part 18 (db_sdp_interface)
                                                   Segment part 18 (hci_sm)
                                                   Segment part 19 (sm_api)
                                                   Segment part 22 (hci_api)
                                                   Segment part 27 (spp)
                                                   Segment part 28 (rfcomm_api)
                                                   Segment part 29 (hci_events)
                                                   Segment part 29 (hci_init)
                                                   Segment part 3 (rfcomm_api)
                                                   Segment part 30 (l2cap_init)
                                                   Segment part 34 (rfcomm_incoming)
                                                   Segment part 39 (l2cap_init)
                                                   Segment part 4 (l2cap_disconnect)
                                                   Segment part 4 (sm_ui)
                                                   Segment part 41 (l2cap_config)
                                                   Segment part 5 (l2cap_data_send)
                                                   Segment part 5 (sdp_api)
                                                   Segment part 6 (rfcomm_write)
                                                   Segment part 6 (sm_interface)
                                                   Segment part 7 (rfcomm_l2cap)
                                                   Segment part 8 (l2cap_connect)
                                                   Segment part 8 (l2cap_data_recv)
                                                   Segment part 9 (sm_ssp_pl)
                                                   hci_command_tx_bh (hci_command_queue)
                                                   hci_common_api_bh (hci_command_queue)
                                                   hci_connection_complete_event (hci_connect)
                                                   hci_connection_request_event (hci_connect)
                                                   hci_disconnection_complete_event (hci_disconnect)
                                                   l2ca_connect_rsp (l2cap_connect)
                                                   l2cap_command_timeout_handler (l2cap_signal)
                                                   l2cap_handle_sdu (l2cap_data_recv)
                                                   l2cap_sm_access_response (l2cap_sm)
                                                   rfcomm_bt_init (rfcomm_init)
                                                   rfcomm_command_timeout (rfcomm_outgoing)
                                                   rfcomm_context_signal (rfcomm_utils)
                                                   rfcomm_handle_msc (rfcomm_incoming)
                                                   rfcomm_handle_rls (rfcomm_incoming)
                                                   rfcomm_handle_sabm_with_sm (rfcomm_sm)
                                                   rfcomm_l2ca_config_ind (rfcomm_l2cap)
                                                   rfcomm_open_bh (rfcomm_bh)
                                                   rfcomm_reset_dlci (rfcomm_utils)
                                                   rfcomm_sm_access_response (rfcomm_sm)
                                                   rfcomm_transmit_data (rfcomm_write)
                                                   rfcomm_write_bh (rfcomm_write)
                                                   sdp_context_signal (sdp_client)
                                                   sdp_request_bh (sdp_bh)
                                                   sm_bt_init (sm_init)
                                                   sm_context_state_machine (sm_core)
                                                   sm_state_machine (sm_core)
                                                   user_task_routine (user_task)
               calls direct
               CSTACK = 00000000 ( 00000004 )
    -------------------------------------------------------------------------
<CODE> 3 (was CODE)
  Relative segment, address: 00013420 - 0001342D (0xe bytes), align: 1
  Segment part 19.
           ENTRY                   ADDRESS         REF BY
           =====                   =======         ======
           BT_thread_mutex_lock    00013420        BT_hci_disconnect (hci_link_control_api)
                                                   BT_sm_set_local_io_cap (sm_ssp_pl)
                                                   BT_spp_connect (spp)
                                                   Segment part 11 (write_task)
                                                   Segment part 13 (db_sdp_interface)
                                                   Segment part 13 (l2cap_lmp)
                                                   Segment part 16 (hci_sm)
                                                   Segment part 17 (rfcomm_bh)
                                                   Segment part 18 (rfcomm_l2cap)
                                                   Segment part 18 (sm_interface)
                                                   Segment part 19 (hci_events)
                                                   Segment part 20 (rfcomm_bh)
                                                   Segment part 20 (spp)
                                                   Segment part 21 (l2cap_config)
                                                   Segment part 21 (l2cap_connect)
                                                   Segment part 21 (rfcomm_api)
                                                   Segment part 21 (write_task)
                                                   Segment part 22 (sdp_l2cap)
                                                   Segment part 23 (hci_api)
                                                   Segment part 23 (hci_init)
                                                   Segment part 24 (sm_api)
                                                   Segment part 28 (hci_events)
                                                   Segment part 36 (l2cap_init)
                                                   Segment part 37 (spp)
                                                   Segment part 5 (sm_ui)
                                                   Segment part 6 (l2cap_connect)
                                                   hci_command_tx_bh (hci_command_queue)
                                                   hci_common_api_bh (hci_command_queue)
                                                   hci_connection_complete_event (hci_connect)
                                                   hci_connection_request_event (hci_connect)
                                                   hci_disconnection_complete_event (hci_disconnect)
                                                   l2ca_config_req (l2cap_config)
                                                   l2ca_data_write (l2cap_data_send)
                                                   l2ca_disconnect_req (l2cap_disconnect)
                                                   l2cap_command_timeout_handler (l2cap_signal)
                                                   l2cap_disconnect_cid (l2cap_disconnect)
                                                   l2cap_handle_sdu (l2cap_data_recv)
                                                   l2cap_lp_data_read (l2cap_data_recv)
                                                   l2cap_lp_disconnect_ind (l2cap_disconnect)
                                                   l2cap_sm_access_response (l2cap_sm)
                                                   rfcomm_bt_init (rfcomm_init)
                                                   rfcomm_command_timeout (rfcomm_outgoing)
                                                   rfcomm_context_signal (rfcomm_utils)
                                                   rfcomm_handle_msc (rfcomm_incoming)
                                                   rfcomm_handle_rls (rfcomm_incoming)
                                                   rfcomm_handle_sabm_with_sm (rfcomm_sm)
                                                   rfcomm_l2ca_config_ind (rfcomm_l2cap)
                                                   rfcomm_l2ca_data_read_ind (rfcomm_incoming)
                                                   rfcomm_reset_dlci (rfcomm_utils)
                                                   rfcomm_sm_access_response (rfcomm_sm)
                                                   rfcomm_transmit_data (rfcomm_write)
                                                   rfcomm_write_bh (rfcomm_write)
                                                   sdp_api_req_handler (sdp_api)
                                                   sdp_context_signal (sdp_client)
                                                   sdp_request_bh (sdp_bh)
                                                   sm_bt_init (sm_init)
                                                   sm_context_state_machine (sm_core)
                                                   sm_state_machine (sm_core)
                                                   spp_rfcomm_callback (spp)
               calls direct
               CSTACK = 00000000 ( 00000004 )
    -------------------------------------------------------------------------
<CODE> 3 (was CODE)
  Relative segment, address: 0001342E - 00013437 (0xa bytes), align: 1
  Segment part 20.
           ENTRY                   ADDRESS         REF BY
           =====                   =======         ======
           BT_thread_mutex_init    0001342E        BT_spp_init (spp)
                                                   db_sdp_init (db_sdp_interface)
                                                   hci_init (hci_init)
                                                   l2cap_init (l2cap_init)
                                                   rfcomm_init (rfcomm_init)
                                                   sdp_init (sdp_init)
                                                   sm_init (sm_init)
                                                   wt_init_pl (write_task_pl)
               calls direct
               CSTACK = 00000000 ( 00000008 )
    -------------------------------------------------------------------------
<CODE> 3 (was CODE)
  Relative segment, address: 00016B7E - 00016B85 (0x8 bytes), align: 1
  Segment part 24.            Intra module refs:   BT_os_init
                                                   BT_thread_cond_init
    -------------------------------------------------------------------------
<CODE> 3 (was CODE)
  Relative segment, address: 000138A6 - 00013911 (0x6c bytes), align: 1
  Segment part 11.
           ENTRY                   ADDRESS         REF BY
           =====                   =======         ======
           BT_alloc_mem            000138A6        appl_spp_sdp_callback (appl_spp)
                                                   hci_common_api_bh (hci_command_queue)
                                                   hci_common_api_handler (hci_commands)
                                                   hci_set_local_name (hci_init)
                                                   hci_uart_send_data (hci_uart)
                                                   l2cap_get_payload_buffer (l2cap_data_recv)
                                                   rfcomm_common_api_handler (rfcomm_api)
                                                   rfcomm_handle_test (rfcomm_incoming)
                                                   rfcomm_send_mux_command (rfcomm_outgoing)
                                                   rfcomm_send_mux_frame (rfcomm_outgoing)
                                                   rfcomm_transmit_data (rfcomm_write)
                                                   sdp_api_req_handler (sdp_api)
                                                   sdp_client_request_handler (sdp_client)
                                                   sdp_l2cap_send (sdp_l2cap)
                                                   sdp_server_request_handler (sdp_server)
               calls direct
               CSTACK = 00000000 ( 0000000C )
    -------------------------------------------------------------------------
<CODE> 3 (was CODE)
  Relative segment, address: 00015A4C - 00015A71 (0x26 bytes), align: 1
  Segment part 10.
           ENTRY                   ADDRESS         REF BY
           =====                   =======         ======
           BT_free_mem             00015A4C        Segment part 25 (hci_init)
                                                   appl_spp_sdp_callback (appl_spp)
                                                   hci_command_tx_bh (hci_command_queue)
                                                   hci_common_api_bh (hci_command_queue)
                                                   hci_common_api_handler (hci_commands)
                                                   hci_uart_send_data (hci_uart)
                                                   l2cap_free_buffer_element (l2cap_utils)
                                                   l2cap_reset_recombination_variables (l2cap_data_recv)
                                                   rfcomm_common_api_handler (rfcomm_api)
                                                   rfcomm_free_context (rfcomm_utils)
                                                   rfcomm_handle_pn (rfcomm_incoming)
                                                   rfcomm_handle_test (rfcomm_incoming)
                                                   rfcomm_send_mux_command (rfcomm_outgoing)
                                                   rfcomm_transmit_data (rfcomm_write)
                                                   sdp_api_req_handler (sdp_api)
                                                   sdp_l2cap_send (sdp_l2cap)
                                                   sdp_util_ce_reset (sdp_util)
                                                   wt_service_queue (write_task)
               calls direct
               CSTACK = 00000000 ( 00000014 )
    -------------------------------------------------------------------------
<CODE> 3 (was CODE)
  Relative segment, address: 00016BE0 - 00016BE3 (0x4 bytes), align: 1
  Segment part 9.
           ENTRY                   ADDRESS         REF BY
           =====                   =======         ======
           BT_mem_copy             00016BE0        ?Subroutine1 (msp430_uart)
                                                   BT_dbase_get_attr_value (db_sdp_interface)
                                                   BT_sdp_servicesearchattributerequest (sdp_api)
                                                   Segment part 11 (hci_commands)
                                                   Segment part 5 (sdp_pdu_handler)
                                                   appl_acl_connection_complete_event (appl_sdk)
                                                   hci_common_api_bh (hci_command_queue)
                                                   hci_common_api_handler (hci_commands)
                                                   hci_uart_send_data (hci_uart)
                                                   l2cap_echo_req (l2cap_ping)
                                                   l2cap_lp_data_read (l2cap_data_recv)
                                                   l2cap_send_co_data (l2cap_data_send)
                                                   l2cap_send_config_rsp (l2cap_config)
                                                   rfcomm_common_api_handler (rfcomm_api)
                                                   rfcomm_handle_test (rfcomm_incoming)
                                                   rfcomm_send_mux_command (rfcomm_outgoing)
                                                   rfcomm_send_mux_frame (rfcomm_outgoing)
                                                   rfcomm_transmit_data (rfcomm_write)
                                                   sdk_hci_event_indication_callback (appl_cb)
                                                   sdp_api_req_handler (sdp_api)
                                                   sdp_client_request_handler (sdp_client)
                                                   sdp_client_response_handler (sdp_client)
                                                   sdp_l2cap_send (sdp_l2cap)
                                                   sdp_pdu_handler_frame_data_element_sequence (sdp_pdu_handler)
                                                   sdp_server_response_handler (sdp_server)
                                                   sm_bt_init (sm_init)
                                                   sm_device_link_key (sm_api)
                                                   sm_link_key_notification (sm_interface)
                                                   sm_storage_read (sm_storage)
                                                   write_task_enqueue (write_task)
               calls direct
               CSTACK = 00000000 ( 00000004 )
    -------------------------------------------------------------------------
<CODE> 3 (was CODE)
  Relative segment, address: 00015CE0 - 00015CFD (0x1e bytes), align: 1
  Segment part 6.             Intra module refs:   BT_thread_create
           ENTRY                   ADDRESS         REF BY
           =====                   =======         ======
           get_task_details        00015CE0 
               CSTACK = 00000000 ( 00000004 )

    -------------------------------------------------------------------------
  LIBRARY MODULE, NAME : bt_id_check

  SEGMENTS IN THE MODULE
  ======================
DATA20_I
  Relative segment, address: 1C52 - 1C58 (0x7 bytes), align: 0
  Segment part 6.             Intra module refs:   update_bt_version
           ENTRY                   ADDRESS         REF BY
           =====                   =======         ======
           sdk_device_type_str     1C52 
    -------------------------------------------------------------------------
DATA20_Z
  Relative segment, address: 378E - 3791 (0x4 bytes), align: 1
  Segment part 8.             Intra module refs:   validate_eval_package
    -------------------------------------------------------------------------
<CODE> 3 (was CODE)
  Relative segment, address: 0001584C - 00015875 (0x2a bytes), align: 1
  Segment part 10.
           ENTRY                   ADDRESS         REF BY
           =====                   =======         ======
           update_bt_version       0001584C        hci_uart_init (hci_uart)
               calls direct
               CSTACK = 00000000 ( 00000004 )
    -------------------------------------------------------------------------
<CODE> 2 (was CODE)
  Relative segment, address: FF32 - FF7F (0x4e bytes), align: 1
  Segment part 9.
           ENTRY                   ADDRESS         REF BY
           =====                   =======         ======
           validate_eval_package   FF32            hci_transport_read_data (hci_events)
                                                   hci_uart_send_data (hci_uart)
               CSTACK = 00000000 ( 00000004 )
    -------------------------------------------------------------------------
DATA20_ID
  Relative segment, address: 00020584 - 0002058A (0x7 bytes), align: 0
  Segment part 7.             Intra module refs:   sdk_device_type_str
    -------------------------------------------------------------------------
DATA20_C
  Relative segment, address: 00020404 - 0002040B (0x8 bytes), align: 0
  Segment part 4.             Intra module refs:   update_bt_version
    -------------------------------------------------------------------------
DATA20_C
  Relative segment, address: 0002040C - 00020413 (0x8 bytes), align: 0
  Segment part 5.             Intra module refs:   update_bt_version

    -------------------------------------------------------------------------
  LIBRARY MODULE, NAME : db_gen

  SEGMENTS IN THE MODULE
  ======================
DATA20_Z
  Relative segment, address: 3792 - 37A9 (0x18 bytes), align: 1
  Segment part 2.             Intra module refs:   BT_dbase_init
           ENTRY                   ADDRESS         REF BY
           =====                   =======         ======
           dbase                   3792            BT_dbase_activate_record (db_sdp_interface)
                                                   BT_dbase_get_attr_value (db_sdp_interface)
                                                   BT_dbase_get_rec_handles (db_sdp_interface)
                                                   BT_dbase_get_server_channel (db_sdp_interface)
    -------------------------------------------------------------------------
DATA20_Z
  Relative segment, address: 37AA - 37AB (0x2 bytes), align: 1
  Segment part 3.             Intra module refs:   BT_dbase_init
           ENTRY                   ADDRESS         REF BY
           =====                   =======         ======
           num_records             37AA            BT_dbase_activate_record (db_sdp_interface)
                                                   BT_dbase_get_attr_value (db_sdp_interface)
                                                   BT_dbase_get_rec_handles (db_sdp_interface)
                                                   BT_dbase_get_server_channel (db_sdp_interface)
    -------------------------------------------------------------------------
DATA20_Z
  Relative segment, address: 37AC - 37AD (0x2 bytes), align: 1
  Segment part 4.             Intra module refs:   BT_dbase_init
           ENTRY                   ADDRESS         REF BY
           =====                   =======         ======
           num_128_ids             37AC            BT_dbase_get_rec_handles (db_sdp_interface)
    -------------------------------------------------------------------------
DATA20_C
  Relative segment, address: 00020414 - 00020418 (0x5 bytes), align: 0
  Segment part 5.
           ENTRY                   ADDRESS         REF BY
           =====                   =======         ======
           uuid_indices_arr        00020414        BT_dbase_get_rec_handles (db_sdp_interface)
    -------------------------------------------------------------------------
DATA20_C
  Relative segment, address: 00020419 - 0002045C (0x44 bytes), align: 0
  Segment part 7.             Intra module refs:   attr_arr
           ENTRY                   ADDRESS         REF BY
           =====                   =======         ======
           value_arr               00020419 
    -------------------------------------------------------------------------
DATA20_C
  Relative segment, address: 00016D30 - 00016D77 (0x48 bytes), align: 1
  Segment part 8.
           ENTRY                   ADDRESS         REF BY
           =====                   =======         ======
           attr_arr                00016D30        BT_dbase_get_attr_value (db_sdp_interface)
                                                   BT_dbase_get_server_channel (db_sdp_interface)
    -------------------------------------------------------------------------
<CODE> 3 (was CODE)
  Relative segment, address: 00014834 - 0001487F (0x4c bytes), align: 1
  Segment part 11.
           ENTRY                   ADDRESS         REF BY
           =====                   =======         ======
           BT_dbase_init           00014834        sdp_bt_init (sdp_init)
               CSTACK = 00000000 ( 00000004 )
    -------------------------------------------------------------------------
DATA20_C
  Relative segment, address: 0002045D - 000204AC (0x50 bytes), align: 0
  Segment part 9.
           ENTRY                   ADDRESS         REF BY
           =====                   =======         ======
           uuid_128_arr            0002045D        BT_dbase_get_rec_handles (db_sdp_interface)
    -------------------------------------------------------------------------
<CODE> 3 (was CODE)
  Relative segment, address: 000154AE - 000154DF (0x32 bytes), align: 1
  Segment part 10.
           ENTRY                   ADDRESS         REF BY
           =====                   =======         ======
           BT_dbase_get_record_handle
                                   000154AE        appl_spp_start (appl_spp)
               CSTACK = 00000000 ( 0000000C )

    -------------------------------------------------------------------------
  LIBRARY MODULE, NAME : hci_uart

  SEGMENTS IN THE MODULE
  ======================
<CODE> 3 (was CODE)
  Relative segment, address: 00016BC8 - 00016BCB (0x4 bytes), align: 1
  Segment part 8.
           ENTRY                   ADDRESS         REF BY
           =====                   =======         ======
           hci_uart_init           00016BC8        ethermind_init_lower_pl (BT_common_pl)
               calls direct
               CSTACK = 00000000 ( 00000004 )
    -------------------------------------------------------------------------
<CODE> 3 (was CODE)
  Relative segment, address: 00016BBC - 00016BBF (0x4 bytes), align: 1
  Segment part 7.
           ENTRY                   ADDRESS         REF BY
           =====                   =======         ======
           hci_uart_bt_init        00016BBC        bluetooth_on_lower_pl (BT_common_pl)
               calls direct
               CSTACK = 00000000 ( 00000004 )
    -------------------------------------------------------------------------
<CODE> 1 (was CODE)
  Relative segment, address: EF7C - F085 (0x10a bytes), align: 1
  Segment part 6.
           ENTRY                   ADDRESS         REF BY
           =====                   =======         ======
           hci_uart_send_data      EF7C            Segment part 4 (l2cap_lmp)
                                                   hci_command_tx_bh (hci_command_queue)
                                                   hci_handle_hardware_error (hci_events)
                                                   hci_sco_connection (hci_connect)
               calls direct
               CSTACK = 00000000 ( 0000001C )
    -------------------------------------------------------------------------
DATA20_Z
  Relative segment, address: 37AE - 37B1 (0x4 bytes), align: 1
  Segment part 2.             Intra module refs:   hci_uart_send_data
    -------------------------------------------------------------------------
DATA20_Z
  Relative segment, address: 37B2 - 37B5 (0x4 bytes), align: 1
  Segment part 3.             Intra module refs:   hci_uart_send_data
    -------------------------------------------------------------------------
DATA20_Z
  Relative segment, address: 37B6 - 37B9 (0x4 bytes), align: 1
  Segment part 4.             Intra module refs:   hci_uart_send_data
    -------------------------------------------------------------------------
DATA20_Z
  Relative segment, address: 3FF1 - 3FF1 (0x1 bytes), align: 0
  Segment part 5.             Intra module refs:   hci_uart_send_data

    -------------------------------------------------------------------------
  LIBRARY MODULE, NAME : ht_read_task_pl

  SEGMENTS IN THE MODULE
  ======================
DATA20_Z
  Relative segment, address: 37BA - 37BD (0x4 bytes), align: 1
  Segment part 2.             Intra module refs:   ht_read_task_create_pl
           ENTRY                   ADDRESS         REF BY
           =====                   =======         ======
           ht_tid                  37BA 
    -------------------------------------------------------------------------
<CODE> 3 (was CODE)
  Relative segment, address: 0001651E - 0001652D (0x10 bytes), align: 1
  Segment part 4.
           ENTRY                   ADDRESS         REF BY
           =====                   =======         ======
           ht_read_task_create_pl
                                   0001651E        hci_transport_init (read_task)
               calls direct
               CSTACK = 00000000 ( 00000004 )

    -------------------------------------------------------------------------
  LIBRARY MODULE, NAME : read_task

  SEGMENTS IN THE MODULE
  ======================
DATA20_I
  Relative segment, address: 1C20 - 1C21 (0x2 bytes), align: 1
  Segment part 4.             Intra module refs:   ht_read_task_start_routine
           ENTRY                   ADDRESS         REF BY
           =====                   =======         ======
           bytes_expected          1C20            BT_UART_ISR (msp430_uart)
    -------------------------------------------------------------------------
DATA20_Z
  Relative segment, address: 3FF2 - 3FF2 (0x1 bytes), align: 0
  Segment part 6.             Intra module refs:   ht_read_task_start_routine
    -------------------------------------------------------------------------
DATA20_Z
  Relative segment, address: 3FF3 - 3FF3 (0x1 bytes), align: 0
  Segment part 7.             Intra module refs:   ht_read_task_start_routine
           ENTRY                   ADDRESS         REF BY
           =====                   =======         ======
           uart_data               3FF3            uart_setup (msp430_uart)
    -------------------------------------------------------------------------
DATA20_Z
  Relative segment, address: 37BE - 37C3 (0x6 bytes), align: 1
  Segment part 8.             Intra module refs:   ht_read_task_start_routine
           ENTRY                   ADDRESS         REF BY
           =====                   =======         ======
           data_rx_queue           37BE            uart_setup (msp430_uart)
    -------------------------------------------------------------------------
DATA20_Z
  Relative segment, address: 3FF4 - 3FF8 (0x5 bytes), align: 0
  Segment part 9.             Intra module refs:   ht_read_task_start_routine
    -------------------------------------------------------------------------
DATA20_Z
  Relative segment, address: 3FF9 - 3FF9 (0x1 bytes), align: 0
  Segment part 10.            Intra module refs:   ht_read_task_start_routine
    -------------------------------------------------------------------------
DATA20_Z
  Relative segment, address: 37C4 - 37C5 (0x2 bytes), align: 1
  Segment part 11.            Intra module refs:   ht_read_task_start_routine
    -------------------------------------------------------------------------
DATA20_Z
  Relative segment, address: 3FFA - 41F9 (0x200 bytes), align: 0
  Segment part 12.            Intra module refs:   ht_read_task_start_routine
           ENTRY                   ADDRESS         REF BY
           =====                   =======         ======
           circular_buf            3FFA            BT_UART_ISR (msp430_uart)
    -------------------------------------------------------------------------
DATA20_Z
  Relative segment, address: 37C6 - 37C7 (0x2 bytes), align: 1
  Segment part 13.
           ENTRY                   ADDRESS         REF BY
           =====                   =======         ======
           circular_buf_wt         37C6            BT_UART_ISR (msp430_uart)
                                                   uart_setup (msp430_uart)
    -------------------------------------------------------------------------
DATA20_Z
  Relative segment, address: 37C8 - 37C9 (0x2 bytes), align: 1
  Segment part 14.            Intra module refs:   ht_read_task_start_routine
           ENTRY                   ADDRESS         REF BY
           =====                   =======         ======
           circular_buf_rd         37C8            BT_UART_ISR (msp430_uart)
                                                   uart_setup (msp430_uart)
    -------------------------------------------------------------------------
DATA20_Z
  Relative segment, address: 41FA - 42FD (0x104 bytes), align: 0
  Segment part 15.            Intra module refs:   ht_read_task_start_routine
    -------------------------------------------------------------------------
DATA20_Z
  Relative segment, address: 37CA - 37CB (0x2 bytes), align: 1
  Segment part 16.            Intra module refs:   ht_read_task_start_routine
           ENTRY                   ADDRESS         REF BY
           =====                   =======         ======
           buf_len                 37CA            BT_UART_ISR (msp430_uart)
    -------------------------------------------------------------------------
<CODE> 3 (was CODE)
  Relative segment, address: 00016BC0 - 00016BC3 (0x4 bytes), align: 1
  Segment part 21.
           ENTRY                   ADDRESS         REF BY
           =====                   =======         ======
           hci_transport_init      00016BC0        BT_ethermind_init (BT_common)
               calls direct
               CSTACK = 00000000 ( 00000004 )
    -------------------------------------------------------------------------
<CODE> 3 (was CODE)
  Relative segment, address: 00016C04 - 00016C05 (0x2 bytes), align: 1
  Segment part 20.
           ENTRY                   ADDRESS         REF BY
           =====                   =======         ======
           hci_transport_bt_init   00016C04        BT_bluetooth_on (BT_common)
               CSTACK = 00000000 ( 00000004 )
    -------------------------------------------------------------------------
<CODE> 1 (was CODE)
  Relative segment, address: D088 - D21B (0x194 bytes), align: 1
  Segment part 17.
           ENTRY                   ADDRESS         REF BY
           =====                   =======         ======
           ht_read_task_start_routine
                                   D088            ht_read_task_create_pl (ht_read_task_pl)
               calls direct
               CSTACK = 00000000 ( 0000001C )
    -------------------------------------------------------------------------
<CODE> 3 (was CODE)
  Relative segment, address: 000163FC - 0001640D (0x12 bytes), align: 1
  Segment part 18.            Intra module refs:   ht_read_task_start_routine
    -------------------------------------------------------------------------
DATA20_ID
  Relative segment, address: 00020552 - 00020553 (0x2 bytes), align: 1
  Segment part 5.             Intra module refs:   bytes_expected
    -------------------------------------------------------------------------
DATA20_C
  Relative segment, address: 000204AD - 000204BC (0x10 bytes), align: 0
  Segment part 2.             Intra module refs:   ht_read_task_start_routine
    -------------------------------------------------------------------------
DATA20_C
  Relative segment, address: 000204BD - 000204D4 (0x18 bytes), align: 0
  Segment part 3.             Intra module refs:   ht_read_task_start_routine

    -------------------------------------------------------------------------
  LIBRARY MODULE, NAME : sm_pl

  SEGMENTS IN THE MODULE
  ======================
DATA20_Z
  Relative segment, address: 37CC - 37CF (0x4 bytes), align: 1
  Segment part 2.             Intra module refs:   sm_init_device_attr_pl
                                                   sm_set_device_attr_pl
                                                   sm_update_device_attr_pl
    -------------------------------------------------------------------------
<CODE> 3 (was CODE)
  Relative segment, address: 00016708 - 0001670B (0x4 bytes), align: 1
  Segment part 9.             Intra module refs:   sm_update_device_attr_pl
    -------------------------------------------------------------------------
<CODE> 3 (was CODE)
  Relative segment, address: 0001670C - 00016715 (0xa bytes), align: 1
  Segment part 10.            Intra module refs:   Segment part 9
                                                   sm_set_device_attr_pl
    -------------------------------------------------------------------------
<CODE> 3 (was CODE)
  Relative segment, address: 000159DA - 000159FF (0x26 bytes), align: 1
  Segment part 6.
           ENTRY                   ADDRESS         REF BY
           =====                   =======         ======
           sm_init_device_attr_pl
                                   000159DA        sm_bt_init (sm_init)
               CSTACK = 00000000 ( 00000004 )
    -------------------------------------------------------------------------
<CODE> 3 (was CODE)
  Relative segment, address: 00014FA2 - 00014FDD (0x3c bytes), align: 1
  Segment part 5.
           ENTRY                   ADDRESS         REF BY
           =====                   =======         ======
           sm_set_device_attr_pl   00014FA2        sm_storage_read (sm_storage)
               CSTACK = 00000000 ( 0000000C )
    -------------------------------------------------------------------------
<CODE> 1 (was CODE)
  Relative segment, address: DD30 - DE73 (0x144 bytes), align: 1
  Segment part 4.
           ENTRY                   ADDRESS         REF BY
           =====                   =======         ======
           sm_update_device_attr_pl
                                   DD30            Segment part 14 (sm_core)
                                                   sm_acl_connection_complete (sm_interface)
                                                   sm_device_link_key (sm_api)
                                                   sm_link_key_notification (sm_interface)
               calls direct
               CSTACK = 00000000 ( 00000018 )
    -------------------------------------------------------------------------
<CODE> 3 (was CODE)
  Relative segment, address: 00013912 - 0001397B (0x6a bytes), align: 1
  Segment part 3.
           ENTRY                   ADDRESS         REF BY
           =====                   =======         ======
           sm_purge_device_list_pl
                                   00013912        sm_create_device_entity (sm_core)
               calls direct
               CSTACK = 00000000 ( 00000014 )

    -------------------------------------------------------------------------
  LIBRARY MODULE, NAME : sm_ssp_pl

  SEGMENTS IN THE MODULE
  ======================
DATA20_I
  Relative segment, address: 1C59 - 1C59 (0x1 bytes), align: 0
  Segment part 2.             Intra module refs:   BT_sm_set_local_io_cap
                                                   sm_get_io_capability_pl
    -------------------------------------------------------------------------
DATA20_Z
  Relative segment, address: 42FE - 4323 (0x26 bytes), align: 0
  Segment part 4.             Intra module refs:   sm_get_io_capability_pl
                                                   sm_get_remote_oob_data_pl
    -------------------------------------------------------------------------
<CODE> 3 (was CODE)
  Relative segment, address: 00015602 - 0001562F (0x2e bytes), align: 1
  Segment part 8.
           ENTRY                   ADDRESS         REF BY
           =====                   =======         ======
           BT_sm_set_local_io_cap
                                   00015602        sdk_bluetooth_on_complete (appl_cb)
               calls direct
               CSTACK = 00000000 ( 00000008 )
    -------------------------------------------------------------------------
<CODE> 3 (was CODE)
  Relative segment, address: 000160D0 - 000160E5 (0x16 bytes), align: 1
  Segment part 9.             Intra module refs:   BT_sm_set_local_io_cap
    -------------------------------------------------------------------------
<CODE> 3 (was CODE)
  Relative segment, address: 000109EA - 00010AB3 (0xca bytes), align: 1
  Segment part 6.
           ENTRY                   ADDRESS         REF BY
           =====                   =======         ======
           sm_get_io_capability_pl
                                   000109EA        sm_io_capability_event (sm_interface)
               calls direct
               CSTACK = 00000000 ( 00000014 )
    -------------------------------------------------------------------------
<CODE> 3 (was CODE)
  Relative segment, address: 00014E2A - 00014E6B (0x42 bytes), align: 1
  Segment part 5.
           ENTRY                   ADDRESS         REF BY
           =====                   =======         ======
           sm_get_remote_oob_data_pl
                                   00014E2A        sm_remote_oob_data_request (sm_interface)
               calls direct
               CSTACK = 00000000 ( 00000010 )
    -------------------------------------------------------------------------
DATA20_ID
  Relative segment, address: 0002058B - 0002058B (0x1 bytes), align: 0
  Segment part 3.             Intra module refs:   Segment part 2

    -------------------------------------------------------------------------
  LIBRARY MODULE, NAME : sm_storage

  SEGMENTS IN THE MODULE
  ======================
<CODE> 3 (was CODE)
  Relative segment, address: 0001649E - 000164AD (0x10 bytes), align: 1
  Segment part 3.
           ENTRY                   ADDRESS         REF BY
           =====                   =======         ======
           sm_storage_write        0001649E        sm_update_device_attr_pl (sm_pl)
               CSTACK = 00000000 ( 00000004 )
    -------------------------------------------------------------------------
<CODE> 3 (was CODE)
  Relative segment, address: 00010290 - 00010367 (0xd8 bytes), align: 1
  Segment part 2.
           ENTRY                   ADDRESS         REF BY
           =====                   =======         ======
           sm_storage_read         00010290        sm_bt_init (sm_init)
               calls direct
               CSTACK = 00000000 ( 0000005E )

    -------------------------------------------------------------------------
  LIBRARY MODULE, NAME : vendor_specific_init

  SEGMENTS IN THE MODULE
  ======================
DATA20_Z
  Relative segment, address: 37D0 - 37D3 (0x4 bytes), align: 1
  Segment part 2.             Intra module refs:   app_vendor_specific_init
           ENTRY                   ADDRESS         REF BY
           =====                   =======         ======
           vendor_specific_init_complete
                                   37D0            hci_command_complete_event (hci_events)
    -------------------------------------------------------------------------
DATA20_Z
  Relative segment, address: 37D4 - 37D7 (0x4 bytes), align: 1
  Segment part 3.             Intra module refs:   app_vendor_specific_init
    -------------------------------------------------------------------------
DATA20_C
  Relative segment, address: 000204D5 - 000204E7 (0x13 bytes), align: 0
  Segment part 4.             Intra module refs:   set_power_level_params
           ENTRY                   ADDRESS         REF BY
           =====                   =======         ======
           set_max_power_six_dbm_param
                                   000204D5 
    -------------------------------------------------------------------------
DATA20_C
  Relative segment, address: 000204E8 - 000204FA (0x13 bytes), align: 0
  Segment part 5.             Intra module refs:   set_power_level_params
           ENTRY                   ADDRESS         REF BY
           =====                   =======         ======
           set_max_power_ten_dbm_param
                                   000204E8 
    -------------------------------------------------------------------------
DATA20_C
  Relative segment, address: 000204FB - 000204FD (0x3 bytes), align: 0
  Segment part 6.             Intra module refs:   send_single_power_table
           ENTRY                   ADDRESS         REF BY
           =====                   =======         ======
           set_single_power_six_dbm_table
                                   000204FB 
    -------------------------------------------------------------------------
DATA20_C
  Relative segment, address: 000204FE - 00020500 (0x3 bytes), align: 0
  Segment part 7.             Intra module refs:   send_single_power_table
           ENTRY                   ADDRESS         REF BY
           =====                   =======         ======
           set_single_power_ten_dbm_table
                                   000204FE 
    -------------------------------------------------------------------------
DATA20_Z
  Relative segment, address: 4324 - 4324 (0x1 bytes), align: 0
  Segment part 8.             Intra module refs:   send_calibration_command
           ENTRY                   ADDRESS         REF BY
           =====                   =======         ======
           init_calib              4324 
    -------------------------------------------------------------------------
DATA20_C
  Relative segment, address: 00020501 - 0002052A (0x2a bytes), align: 0
  Segment part 9.             Intra module refs:   send_calibration_command
           ENTRY                   ADDRESS         REF BY
           =====                   =======         ======
           set_rf_calib_info       00020501 
    -------------------------------------------------------------------------
DATA20_C
  Relative segment, address: 0002052B - 0002052D (0x3 bytes), align: 0
  Segment part 10.            Intra module refs:   send_calibration_command
           ENTRY                   ADDRESS         REF BY
           =====                   =======         ======
           enable_rf_calib_init    0002052B 
    -------------------------------------------------------------------------
DATA20_C
  Relative segment, address: 0002052E - 00020531 (0x4 bytes), align: 0
  Segment part 11.            Intra module refs:   send_calibration_command
           ENTRY                   ADDRESS         REF BY
           =====                   =======         ======
           enable_rf_calib_periodic
                                   0002052E 
    -------------------------------------------------------------------------
DATA20_Z
  Relative segment, address: 4325 - 4338 (0x14 bytes), align: 0
  Segment part 12.            Intra module refs:   Segment part 20
                                                   sdk_set_max_output_power
                                                   send_power_level_command
           ENTRY                   ADDRESS         REF BY
           =====                   =======         ======
           max_power_level_param   4325 
    -------------------------------------------------------------------------
DATA20_Z
  Relative segment, address: 4339 - 4339 (0x1 bytes), align: 0
  Segment part 13.            Intra module refs:   sdk_set_max_output_power
                                                   send_calibration_command
                                                   send_power_level_command
           ENTRY                   ADDRESS         REF BY
           =====                   =======         ======
           set_power_level         4339            hci_command_complete_event (hci_events)
    -------------------------------------------------------------------------
DATA20_Z
  Relative segment, address: 433A - 433A (0x1 bytes), align: 0
  Segment part 14.            Intra module refs:   sdk_set_max_output_power
           ENTRY                   ADDRESS         REF BY
           =====                   =======         ======
           output_power_level      433A            hci_command_complete_event (hci_events)
    -------------------------------------------------------------------------
<CODE> 3 (was CODE)
  Relative segment, address: 00015ED4 - 00015EEB (0x18 bytes), align: 1
  Segment part 22.
           ENTRY                   ADDRESS         REF BY
           =====                   =======         ======
           appl_vendor_specific_check
                                   00015ED4        hci_command_complete_event (hci_events)
               CSTACK = 00000000 ( 00000004 )
    -------------------------------------------------------------------------
<CODE> 3 (was CODE)
  Relative segment, address: 00011246 - 00011301 (0xbc bytes), align: 1
  Segment part 21.
           ENTRY                   ADDRESS         REF BY
           =====                   =======         ======
           app_vendor_specific_init
                                   00011246        hci_command_complete_event (hci_events)
               calls direct
               CSTACK = 00000000 ( 0000000E )
    -------------------------------------------------------------------------
<CODE> 3 (was CODE)
  Relative segment, address: 00015B8C - 00015BAB (0x20 bytes), align: 1
  Segment part 19.
           ENTRY                   ADDRESS         REF BY
           =====                   =======         ======
           sdk_set_max_output_power
                                   00015B8C        sdk_hci_event_indication_callback (appl_cb)
               calls direct
               CSTACK = 00000000 ( 00000004 )
    -------------------------------------------------------------------------
<CODE> 3 (was CODE)
  Relative segment, address: 0001640E - 0001641D (0x10 bytes), align: 1
  Segment part 20.            Intra module refs:   sdk_set_max_output_power
                                                   send_power_level_command
    -------------------------------------------------------------------------
<CODE> 3 (was CODE)
  Relative segment, address: 00015822 - 0001584B (0x2a bytes), align: 1
  Segment part 18.            Intra module refs:   sdk_set_max_output_power
           ENTRY                   ADDRESS         REF BY
           =====                   =======         ======
           set_power_level_params
                                   00015822 
               calls direct
               CSTACK = 00000000 ( 00000004 )
    -------------------------------------------------------------------------
<CODE> 3 (was CODE)
  Relative segment, address: 00015104 - 0001513D (0x3a bytes), align: 1
  Segment part 17.
           ENTRY                   ADDRESS         REF BY
           =====                   =======         ======
           send_single_power_table
                                   00015104        hci_command_complete_event (hci_events)
               calls direct
               CSTACK = 00000000 ( 00000008 )
    -------------------------------------------------------------------------
<CODE> 3 (was CODE)
  Relative segment, address: 000155A2 - 000155D1 (0x30 bytes), align: 1
  Segment part 16.
           ENTRY                   ADDRESS         REF BY
           =====                   =======         ======
           send_power_level_command
                                   000155A2        hci_command_complete_event (hci_events)
               calls direct
               CSTACK = 00000000 ( 00000008 )
    -------------------------------------------------------------------------
<CODE> 3 (was CODE)
  Relative segment, address: 00012F72 - 00012FED (0x7c bytes), align: 1
  Segment part 15.
           ENTRY                   ADDRESS         REF BY
           =====                   =======         ======
           send_calibration_command
                                   00012F72        hci_command_complete_event (hci_events)
               calls direct
               CSTACK = 00000000 ( 00000008 )

    -------------------------------------------------------------------------
  LIBRARY MODULE, NAME : write_task_pl

  SEGMENTS IN THE MODULE
  ======================
DATA20_Z
  Relative segment, address: 37D8 - 37DB (0x4 bytes), align: 1
  Segment part 2.             Intra module refs:   wt_init_pl
           ENTRY                   ADDRESS         REF BY
           =====                   =======         ======
           wt_mutex                37D8            Segment part 11 (write_task)
                                                   Segment part 17 (write_task)
                                                   Segment part 21 (write_task)
                                                   write_task_start_routine (write_task)
    -------------------------------------------------------------------------
DATA20_Z
  Relative segment, address: 37DC - 37DF (0x4 bytes), align: 1
  Segment part 3.             Intra module refs:   wt_init_pl
           ENTRY                   ADDRESS         REF BY
           =====                   =======         ======
           wt_cv                   37DC            Segment part 22 (write_task)
                                                   write_task_enqueue (write_task)
                                                   write_task_start_routine (write_task)
    -------------------------------------------------------------------------
DATA20_Z
  Relative segment, address: 37E0 - 37E3 (0x4 bytes), align: 1
  Segment part 4.             Intra module refs:   wt_init_pl
    -------------------------------------------------------------------------
<CODE> 3 (was CODE)
  Relative segment, address: 00015542 - 00015571 (0x30 bytes), align: 1
  Segment part 5.
           ENTRY                   ADDRESS         REF BY
           =====                   =======         ======
           wt_init_pl              00015542        write_task_init (write_task)
               calls direct
               CSTACK = 00000000 ( 00000004 )

    *************************************************************************

  FILE NAME : C:\Program Files\IAR Systems\Embedded Workbench 6.0\430\LIB\DLIB\dl430xlff.r43
  LIBRARY MODULE, NAME : ?Mul32Hw32Loc2

  SEGMENTS IN THE MODULE
  ======================
<CODE> 3 (was CODE)
  Relative segment, address: 00015B48 - 00015B69 (0x22 bytes), align: 1
  Segment part 0.
           ENTRY                   ADDRESS         REF BY
           =====                   =======         ======
           ?Mul32Hw32Loc2          00015B48        ?Subroutine0 (heap_bt)
                                                   ?Subroutine1 (heap_bt)
                                                   BT_dbase_get_rec_handles (db_sdp_interface)
                                                   Segment part 10 (sm_api)
                                                   Segment part 10 (sm_pl)
                                                   Segment part 11 (l2cap_connect)
                                                   Segment part 14 (sdp_api)
                                                   Segment part 15 (l2cap_utils)
                                                   Segment part 29 (sm_interface)
                                                   Segment part 32 (l2cap_config)
                                                   Segment part 4 (sdp_api)
                                                   Segment part 5 (l2cap_command)
                                                   Segment part 5 (sdp_util)
                                                   Segment part 6 (l2cap_ping)
                                                   Segment part 6 (sm_core)
                                                   Segment part 7 (hci_connect)
                                                   Segment part 7 (hci_utils)
                                                   Segment part 7 (l2cap_disconnect)
                                                   Segment part 7 (l2cap_signal)
                                                   Segment part 8 (l2cap_lmp)
                                                   hci_common_api_handler (hci_commands)
                                                   hci_find_device_by_handle (hci_utils)
                                                   l2cap_command_timeout_handler (l2cap_signal)
                                                   l2cap_command_write (l2cap_command)
                                                   l2cap_create_command (l2cap_command)
                                                   l2cap_disconnect_cid (l2cap_disconnect)
                                                   l2cap_echo_req (l2cap_ping)
                                                   l2cap_handle_sdu (l2cap_data_recv)
                                                   l2cap_lp_data_read (l2cap_data_recv)
                                                   l2cap_register_psm (l2cap_init)
                                                   l2cap_send_co_data (l2cap_data_send)
                                                   l2cap_send_command_rej (l2cap_signal)
                                                   l2cap_sm_access_response (l2cap_sm)
                                                   rfcomm_add_dlci (rfcomm_utils)
                                                   sdp_client_context_find (sdp_client)
                                                   sdp_l2cap_connect_ind (sdp_l2cap)
                                                   sdp_request_bh (sdp_bh)
                                                   sm_get_io_capability_pl (sm_ssp_pl)
                                                   sm_get_remote_oob_data_pl (sm_ssp_pl)
                                                   sm_ui_notification_request_reply (sm_ui)

    -------------------------------------------------------------------------
  LIBRARY MODULE, NAME : ?__dbg_break

  SEGMENTS IN THE MODULE
  ======================
<CODE> 3 (was CODE)
  Relative segment, address: 00016BFE - 00016BFF (0x2 bytes), align: 1
  Segment part 2.
           ENTRY                   ADDRESS         REF BY
           =====                   =======         ======
           __DebugBreak            00016BFE        __exit (?__exit)
               not allocated function

    -------------------------------------------------------------------------
  LIBRARY MODULE, NAME : ?__exit

  SEGMENTS IN THE MODULE
  ======================
<CODE> 3 (was CODE)
  Relative segment, address: 00016212 - 00016225 (0x14 bytes), align: 1
  Segment part 2.
           ENTRY                   ADDRESS         REF BY
           =====                   =======         ======
           __exit                  00016212        Segment part 5 (?_exit)
                                                   _exit (?_exit)
               calls direct
               not allocated function

    -------------------------------------------------------------------------
  LIBRARY MODULE, NAME : ?_exit

  SEGMENTS IN THE MODULE
  ======================
<CODE> 3 (was CODE)
  Relative segment, address: 00016BCC, align: 1
  Segment part 0.
           ENTRY                   ADDRESS         REF BY
           =====                   =======         ======
           _exit                   00016BCC        exit (?exit)
    -------------------------------------------------------------------------
<CODE> 3 (was CODE)
  Relative segment, address: 00016BCC - 00016BCF (0x4 bytes), align: 1
  Segment part 5.             Intra module refs:   _exit

    -------------------------------------------------------------------------
  LIBRARY MODULE, NAME : ?cstart

  SEGMENTS IN THE MODULE
  ======================
CSTACK
  Relative segment, address: 5AD4, align: 1
  Segment part 1.
    -------------------------------------------------------------------------
DATA20_Z
  Relative segment, address: 37E4, align: 1
  Segment part 7.
    -------------------------------------------------------------------------
DATA20_I
  Relative segment, address: 1C22, align: 1
  Segment part 8.
    -------------------------------------------------------------------------
DATA20_ID
  Relative segment, address: 00020554, align: 1
  Segment part 9.
    -------------------------------------------------------------------------
CSTART
  Relative segment, address: 5C00 - 5C03 (0x4 bytes), align: 1
  Segment part 10.
           ENTRY                   ADDRESS         REF BY
           =====                   =======         ======
           __program_start         5C00            ?reset_vector (?reset_vector)
                                                   Absolute parts (?ABS_ENTRY_MOD)
           ?cstart_begin           5C00 
    -------------------------------------------------------------------------
CSTART
  Relative segment, address: 5C04 - 5C0B (0x8 bytes), align: 1
  Segment part 11.
           ENTRY                   ADDRESS         REF BY
           =====                   =======         ======
           ?cstart_call_low_level_init
                                   5C04            __low_level_init (main)
    -------------------------------------------------------------------------
CSTART
  Relative segment, address: 5C0C - 5C1B (0x10 bytes), align: 1
  Segment part 15.
           ENTRY                   ADDRESS         REF BY
           =====                   =======         ======
           ?cstart_init_zero20     5C0C            LED_STATUS (sdk_pl)
                                                   Segment part 10 (read_task)
                                                   Segment part 11 (read_task)
                                                   Segment part 15 (read_task)
                                                   Segment part 2 (BT_common)
                                                   Segment part 2 (BT_os)
                                                   Segment part 2 (db_sdp_interface)
                                                   Segment part 2 (hci_uart)
                                                   Segment part 2 (sm_pl)
                                                   Segment part 2 (spp)
                                                   Segment part 3 (BT_common)
                                                   Segment part 3 (hci_uart)
                                                   Segment part 3 (spp)
                                                   Segment part 3 (vendor_specific_init)
                                                   Segment part 3 (write_task)
                                                   Segment part 4 (hci_uart)
                                                   Segment part 4 (sm_ssp_pl)
                                                   Segment part 4 (spp)
                                                   Segment part 4 (write_task)
                                                   Segment part 4 (write_task_pl)
                                                   Segment part 5 (BT_os)
                                                   Segment part 5 (hci_uart)
                                                   Segment part 5 (spp)
                                                   Segment part 5 (write_task)
                                                   Segment part 6 (read_task)
                                                   Segment part 6 (spp)
                                                   Segment part 6 (write_task)
                                                   Segment part 7 (spp)
                                                   Segment part 7 (write_task)
                                                   Segment part 8 (bt_id_check)
                                                   Segment part 8 (spp)
                                                   Segment part 9 (read_task)
                                                   Segment part 9 (spp)
                                                   accl_coord (accelerometer_pl)
                                                   accl_x (accelerometer_pl)
                                                   accl_y (accelerometer_pl)
                                                   accl_z (accelerometer_pl)
                                                   appl_l2cap_tx_buf_state (appl_spp)
                                                   appl_spp_local_server_ch (appl_spp)
                                                   appl_spp_remote_server_ch (appl_spp)
                                                   appl_spp_sdp_handle (appl_spp)
                                                   bt_uart_config (msp430_uart)
                                                   buf_len (read_task)
                                                   bufferSize (hal_usb)
                                                   circular_buf (read_task)
                                                   circular_buf_rd (read_task)
                                                   circular_buf_wt (read_task)
                                                   circular_user_buf_rd (user_task)
                                                   circular_user_buf_wt (user_task)
                                                   circular_user_buffer (user_task)
                                                   cpu_frequency (sdk_pl)
                                                   data_rx_queue (read_task)
                                                   dbase (db_gen)
                                                   debounce (appl_menu_pl)
                                                   deep_sleep_state (appl_bt_rf)
                                                   dev_attr_list (hci_init)
                                                   halUsbReceiveBuffer (hal_usb)
                                                   hci_bt_init_complete_call_cb (hci_init)
                                                   hci_call_event_ind_callback (hci_init)
                                                   hci_command_queue (hci_init)
                                                   hci_command_queue_end (hci_init)
                                                   hci_command_queue_start (hci_init)
                                                   hci_device_role (hci_init)
                                                   hci_event_ind_cb (hci_init)
                                                   hci_flow_control (hci_init)
                                                   hci_init_command_mask (hci_init)
                                                   hci_local_bd_addr (hci_init)
                                                   hci_local_name (hci_init)
                                                   hci_max_acl_tx_pkt_size (hci_init)
                                                   hci_max_no_acl_tx_packets (hci_init)
                                                   hci_mutex (hci_init)
                                                   hci_num_hci_command_packets (hci_init)
                                                   hci_remote_devices (hci_init)
                                                   hci_schedule_command_tx (hci_init)
                                                   heap_memory (heap_bt)
                                                   heap_pointer (heap_bt)
                                                   ht_tid (ht_read_task_pl)
                                                   inactivity_counter (msp430_uart)
                                                   init_calib (vendor_specific_init)
                                                   l2cap_buffer_list (l2cap_init)
                                                   l2cap_buffer_num_available (l2cap_init)
                                                   l2cap_ce_list (l2cap_init)
                                                   l2cap_command_list (l2cap_init)
                                                   l2cap_config_timeout (l2cap_init)
                                                   l2cap_default_flow_spec (l2cap_init)
                                                   l2cap_flow_spec_list (l2cap_init)
                                                   l2cap_lp_max_acl_packet_size (l2cap_init)
                                                   l2cap_lp_max_acl_packets (l2cap_init)
                                                   l2cap_lp_num_acl_packets (l2cap_init)
                                                   l2cap_mutex (l2cap_init)
                                                   l2cap_psm_list (l2cap_init)
                                                   l2cap_schedule_tx (l2cap_init)
                                                   l2cap_sig_id_counter (l2cap_init)
                                                   l2cap_sigch_list (l2cap_init)
                                                   l2cap_tx_pdu (l2cap_init)
                                                   l2cap_tx_q_end (l2cap_init)
                                                   l2cap_tx_q_start (l2cap_init)
                                                   l2cap_tx_queue_flow_cb (l2cap_init)
                                                   l2cap_tx_queue_flow_state (l2cap_init)
                                                   l2cap_tx_queue_hwm (l2cap_init)
                                                   l2cap_tx_queue_lwm (l2cap_init)
                                                   lpm_mode (appl_menu_pl)
                                                   max_power_level_param (vendor_specific_init)
                                                   num_128_ids (db_gen)
                                                   num_records (db_gen)
                                                   output_power_level (vendor_specific_init)
                                                   peer_initiated_acl_connection (appl_sdk)
                                                   pool_mgr (heap_bt)
                                                   pos_x (appl_sdk)
                                                   pos_x_tmp (appl_sdk)
                                                   pos_y (appl_sdk)
                                                   pos_y_tmp (appl_sdk)
                                                   pos_z (appl_sdk)
                                                   pos_z_tmp (appl_sdk)
                                                   pvPortMalloc::xHeapHasBeenInitialised (heap_2)
                                                   pxCurrentTCB (tasks)
                                                   pxDelayedTaskList (tasks)
                                                   pxOverflowDelayedTaskList (tasks)
                                                   pxReadyTasksLists (tasks)
                                                   rem_bt_dev (appl_cb)
                                                   rem_dev_index (appl_cb)
                                                   rem_dev_num (appl_cb)
                                                   rfcomm_ack_timeout (rfcomm_init)
                                                   rfcomm_context (rfcomm_init)
                                                   rfcomm_default_l2cap_mtu (rfcomm_init)
                                                   rfcomm_dlci (rfcomm_init)
                                                   rfcomm_mutex (rfcomm_init)
                                                   rfcomm_rpn (rfcomm_init)
                                                   rfcomm_session (rfcomm_init)
                                                   sdk_connect_in_progress (appl_sdk)
                                                   sdk_initiator (appl_sdk)
                                                   sdk_scan_enable (appl_cb)
                                                   sdk_status (appl_sdk)
                                                   sdk_usb_detected (sdk_pl)
                                                   sdp_client_ce (sdp_init)
                                                   sdp_context (sdp_init)
                                                   sdp_mutex (sdp_init)
                                                   sdp_server_ce (sdp_init)
                                                   sdp_server_ind_cb (sdp_init)
                                                   set_power_level (vendor_specific_init)
                                                   sm_authentication_handle (sm_init)
                                                   sm_authentication_service (sm_init)
                                                   sm_contexts (sm_init)
                                                   sm_default_pin (sm_init)
                                                   sm_default_pin_length (sm_init)
                                                   sm_devices (sm_init)
                                                   sm_encryption_handle (sm_init)
                                                   sm_mutex (sm_init)
                                                   sm_pairable_mode (sm_init)
                                                   sm_services (sm_init)
                                                   sm_ui_notify (sm_init)
                                                   switch_pos (appl_menu_pl)
                                                   tx_isr_active (msp430_uart)
                                                   uart_data (read_task)
                                                   uart_tx_buffer (msp430_uart)
                                                   uart_tx_rd (msp430_uart)
                                                   uart_tx_wr (msp430_uart)
                                                   user_buf_len (user_task)
                                                   uxCurrentNumberOfTasks (tasks)
                                                   uxMissedTicks (tasks)
                                                   uxSchedulerSuspended (tasks)
                                                   uxTaskNumber (tasks)
                                                   uxTasksDeleted (tasks)
                                                   uxTopReadyPriority (tasks)
                                                   uxTopUsedPriority (tasks)
                                                   vTaskPlaceOnEventList::DelayedTaskList (tasks)
                                                   vTaskPlaceOnEventList::OverflowDelayedTaskList (tasks)
                                                   vendor_specific_init_complete (vendor_specific_init)
                                                   wt_cv (write_task_pl)
                                                   wt_mutex (write_task_pl)
                                                   wt_state (write_task)
                                                   xDelayedTaskList1 (tasks)
                                                   xDelayedTaskList2 (tasks)
                                                   xEnd (heap_2)
                                                   xFreeBytesRemaining (heap_2)
                                                   xHeap (heap_2)
                                                   xMissedYield (tasks)
                                                   xNumOfOverflows (tasks)
                                                   xPendingReadyList (tasks)
                                                   xReadSemaphore (BT_os)
                                                   xSchedulerRunning (tasks)
                                                   xStart (heap_2)
                                                   xSuspendedTaskList (tasks)
                                                   xTasksWaitingTermination (tasks)
                                                   xTickCount (tasks)
                                                   xUserSemaphore (BT_os)
    -------------------------------------------------------------------------
CSTART
  Relative segment, address: 5C1C - 5C2F (0x14 bytes), align: 1
  Segment part 16.
           ENTRY                   ADDRESS         REF BY
           =====                   =======         ======
           ?cstart_init_copy20     5C1C            Segment part 2 (sm_ssp_pl)
                                                   bt_os_thread_property (user_task)
                                                   bytes_expected (read_task)
                                                   inactivity_timeout (user_task)
                                                   max (appl_sdk)
                                                   sdk_bt_power (appl_sdk)
                                                   sdk_bt_visible (appl_sdk)
                                                   sdk_device_type_str (bt_id_check)
                                                   sdk_local_name (appl_menu_pl)
                                                   sdk_lps_param (appl_bt_rf)
                                                   sleep_config_param (appl_bt_rf)
                                                   sleep_enable_param (appl_bt_rf)
                                                   usCriticalNesting (port)
                                                   vs_max_commands (vendor_specific_script)
    -------------------------------------------------------------------------
CSTART
  Relative segment, address: 5C30 - 5C37 (0x8 bytes), align: 1
  Segment part 19.            Intra module refs:   ?cstart_call_low_level_init
                                                   Segment part 10
           ENTRY                   ADDRESS         REF BY
           =====                   =======         ======
           ?cstart_call_main       5C30 
           ?cstart_end             5C38 

    -------------------------------------------------------------------------
  LIBRARY MODULE, NAME : ?reset_vector

  SEGMENTS IN THE MODULE
  ======================
RESET
  Relative segment, address: FFFE - FFFF (0x2 bytes), align: 1
  Segment part 0.
           ENTRY                   ADDRESS         REF BY
           =====                   =======         ======
           ?reset_vector           FFFE            Segment part 10 (?cstart)

    -------------------------------------------------------------------------
  LIBRARY MODULE, NAME : ?exit

  SEGMENTS IN THE MODULE
  ======================
<CODE> 3 (was CODE)
  Relative segment, address: 00016BD0 - 00016BD3 (0x4 bytes), align: 1
  Segment part 2.
           ENTRY                   ADDRESS         REF BY
           =====                   =======         ======
           exit                    00016BD0        Segment part 19 (?cstart)
               calls direct
               CSTACK = 00000000 ( 00000004 )

    -------------------------------------------------------------------------
  LIBRARY MODULE, NAME : ?DivMod32u

  SEGMENTS IN THE MODULE
  ======================
<CODE> 3 (was CODE)
  Relative segment, address: 00014C9C - 00014CDF (0x44 bytes), align: 1
  Segment part 0.
           ENTRY                   ADDRESS         REF BY
           =====                   =======         ======
           ?DivMod32u              00014C9C        Segment part 5 (?xprintftiny)

    -------------------------------------------------------------------------
  LIBRARY MODULE, NAME : ?ShiftLeft32

  SEGMENTS IN THE MODULE
  ======================
<CODE> 3 (was CODE)
  Relative segment, address: 00016036 - 00016039 (0x4 bytes), align: 1
  Segment part 3.
           ENTRY                   ADDRESS         REF BY
           =====                   =======         ======
           ?ShiftLeft32_5          00016036        Segment part 32 (rfcomm_incoming)
                                                   rfcomm_common_api_handler (rfcomm_api)
                                                   rfcomm_context_signal (rfcomm_utils)
                                                   rfcomm_free_context (rfcomm_utils)
                                                   rfcomm_search_command (rfcomm_utils)
                                                   rfcomm_send_mode_command (rfcomm_outgoing)
                                                   rfcomm_send_mux_command (rfcomm_outgoing)
                                                   rfcomm_session_open (rfcomm_bh)
    -------------------------------------------------------------------------
<CODE> 3 (was CODE)
  Relative segment, address: 0001603A - 0001603D (0x4 bytes), align: 1
  Segment part 4.             Intra module refs:   ?ShiftLeft32_5
           ENTRY                   ADDRESS         REF BY
           =====                   =======         ======
           ?ShiftLeft32_4          0001603A 
    -------------------------------------------------------------------------
<CODE> 3 (was CODE)
  Relative segment, address: 0001603E - 0001604B (0xe bytes), align: 1
  Segment part 5.             Intra module refs:   ?ShiftLeft32_4
           ENTRY                   ADDRESS         REF BY
           =====                   =======         ======
           ?ShiftLeft32_3          0001603E 

    -------------------------------------------------------------------------
  LIBRARY MODULE, NAME : ?memcmp

  SEGMENTS IN THE MODULE
  ======================
<CODE> 3 (was CODE)
  Relative segment, address: 000156E8 - 00015715 (0x2e bytes), align: 1
  Segment part 2.
           ENTRY                   ADDRESS         REF BY
           =====                   =======         ======
           memcmp                  000156E8        BT_dbase_get_rec_handles (db_sdp_interface)
                                                   Segment part 4 (hci_dev_attr)
                                                   appl_get_status_instance_bd_addr (appl_sdk)
                                                   hci_find_remote_device (hci_utils)
                                                   l2cap_is_in_sigch_list (l2cap_utils)
                                                   l2cap_lp_connect_ind (l2cap_connect)
                                                   l2cap_sm_access_response (l2cap_sm)
                                                   rfcomm_add_session (rfcomm_utils)
                                                   rfcomm_get_session_bd_addr (rfcomm_utils)
                                                   rfcomm_handle_test (rfcomm_incoming)
                                                   sdk_hci_event_indication_callback (appl_cb)
                                                   sdp_client_context_find (sdp_client)
                                                   sdp_get_PointerToUUID (sdp_util_api)
                                                   sdp_request_bh (sdp_bh)
                                                   sdp_server_response_handler (sdp_server)
                                                   sdp_util_ce_client_bdaddr (sdp_util)
                                                   sm_get_io_capability_pl (sm_ssp_pl)
                                                   sm_get_remote_oob_data_pl (sm_ssp_pl)
                                                   sm_hci_proc_complete (sm_interface)
                                                   sm_search_device_entity (sm_core)
                                                   sm_ui_notification_bh (sm_ui)
                                                   spp_get_entity_handle (spp)
               CSTACK = 00000000 ( 00000008 )

    -------------------------------------------------------------------------
  LIBRARY MODULE, NAME : ?memcpy

  SEGMENTS IN THE MODULE
  ======================
<CODE> 3 (was CODE)
  Relative segment, address: 00015C2C - 00015C49 (0x1e bytes), align: 1
  Segment part 2.
           ENTRY                   ADDRESS         REF BY
           =====                   =======         ======
           memcpy                  00015C2C        BT_mem_copy (BT_os)
                                                   __data20_memcpy (?memzero)
                                                   appl_spp_notify_cb (appl_spp)
                                                   prvCopyDataFromQueue (queue)
                                                   prvCopyDataToQueue (queue)
                                                   sdk_hci_event_indication_callback (appl_cb)
                                                   sdp_server_get_attr_values (sdp_server)
                                                   send_single_power_table (vendor_specific_init)
                                                   set_power_level_params (vendor_specific_init)
               CSTACK = 00000000 ( 0000000C )

    -------------------------------------------------------------------------
  LIBRARY MODULE, NAME : ?CopyMemoryBytes

  SEGMENTS IN THE MODULE
  ======================
<CODE> 3 (was CODE)
  Relative segment, address: 0001610E - 00016121 (0x14 bytes), align: 1
  Segment part 0.
           ENTRY                   ADDRESS         REF BY
           =====                   =======         ======
           ?CopyMemoryBytes        0001610E        hci_bt_init (hci_init)
                                                   hci_command_complete_event (hci_events)

    -------------------------------------------------------------------------
  LIBRARY MODULE, NAME : ?CopyMemoryBytes20

  SEGMENTS IN THE MODULE
  ======================
<CODE> 3 (was CODE)
  Relative segment, address: 00015FAC - 00015FC3 (0x18 bytes), align: 1
  Segment part 0.
           ENTRY                   ADDRESS         REF BY
           =====                   =======         ======
           ?CopyMemoryBytes20      00015FAC        rfcomm_handle_msc (rfcomm_incoming)
                                                   sm_get_remote_oob_data_pl (sm_ssp_pl)

    -------------------------------------------------------------------------
  LIBRARY MODULE, NAME : ?CopyMemoryWords20

  SEGMENTS IN THE MODULE
  ======================
<CODE> 3 (was CODE)
  Relative segment, address: 00016078 - 0001608D (0x16 bytes), align: 1
  Segment part 0.
           ENTRY                   ADDRESS         REF BY
           =====                   =======         ======
           ?CopyMemoryWords20      00016078        Segment part 29 (l2cap_config)
                                                   Segment part 41 (rfcomm_api)
                                                   l2cap_register_psm (l2cap_init)
                                                   rfcomm_context_signal (rfcomm_utils)
                                                   sdp_api_req_handler (sdp_api)

    -------------------------------------------------------------------------
  LIBRARY MODULE, NAME : ?memset

  SEGMENTS IN THE MODULE
  ======================
<CODE> 3 (was CODE)
  Relative segment, address: 00015C4A - 00015C67 (0x1e bytes), align: 1
  Segment part 2.
           ENTRY                   ADDRESS         REF BY
           =====                   =======         ======
           memset                  00015C4A        OS_deallocate_buffer (heap_bt)
                                                   Segment part 24 (write_task)
                                                   appl_dump_bytes (appl_cb)
                                                   hci_bt_init (hci_init)
                                                   hci_common_api_handler (hci_commands)
                                                   hci_free_remote_device (hci_utils)
                                                   prvAllocateTCBAndStack (tasks)
                                                   rfcomm_bt_init (rfcomm_init)
                                                   rfcomm_del_session (rfcomm_utils)
                                                   rfcomm_free_context (rfcomm_utils)
                                                   sdp_server_get_attr_values (sdp_server)
                                                   sdp_server_request_handler (sdp_server)
                                                   sdp_server_response_handler (sdp_server)
                                                   sdp_util_ce_reset (sdp_util)
                                                   sm_create_device_entity (sm_core)
                                                   sm_storage_read (sm_storage)
                                                   spp_accept (spp)
                                                   spp_disconnect_handler (spp)
                                                   spp_init_entity_list (spp)
                                                   uart_setup (msp430_uart)
                                                   write_task_init (write_task)
               CSTACK = 00000000 ( 0000000C )

    -------------------------------------------------------------------------
  LIBRARY MODULE, NAME : ?memzero

  SEGMENTS IN THE MODULE
  ======================
<CODE> 3 (was CODE)
  Relative segment, address: 00015F34 - 00015F4B (0x18 bytes), align: 1
  Segment part 4.
           ENTRY                   ADDRESS         REF BY
           =====                   =======         ======
           __data20_memzero        00015F34        ?cstart_init_zero20 (?cstart)
               CSTACK = 00000000 ( 00000004 )
    -------------------------------------------------------------------------
<CODE> 3 (was CODE)
  Relative segment, address: 00016BEC - 00016BEF (0x4 bytes), align: 1
  Segment part 3.
           ENTRY                   ADDRESS         REF BY
           =====                   =======         ======
           __data20_memcpy         00016BEC        ?cstart_init_copy20 (?cstart)
               calls direct
               CSTACK = 00000000 ( 00000004 )

    -------------------------------------------------------------------------
  LIBRARY MODULE, NAME : ?sprintf

  SEGMENTS IN THE MODULE
  ======================
<CODE> 3 (was CODE)
  Relative segment, address: 00014D64 - 00014DA5 (0x42 bytes), align: 1
  Segment part 2.
           ENTRY                   ADDRESS         REF BY
           =====                   =======         ======
           sprintf                 00014D64        ?Subroutine0 (appl_cb)
                                                   ?Subroutine3 (appl_cb)
                                                   sdk_sm_ui_notify_cb (appl_cb)
               calls direct
               CSTACK = 00000000 ( 00000012 )

    -------------------------------------------------------------------------
  LIBRARY MODULE, NAME : ?strcpy

  SEGMENTS IN THE MODULE
  ======================
<CODE> 3 (was CODE)
  Relative segment, address: 000162CA - 000162DB (0x12 bytes), align: 1
  Segment part 2.
           ENTRY                   ADDRESS         REF BY
           =====                   =======         ======
           strcpy                  000162CA        hci_handle_init_sequence (hci_init)
                                                   hci_set_local_name (hci_init)
                                                   update_bt_version (bt_id_check)
               CSTACK = 00000000 ( 00000004 )

    -------------------------------------------------------------------------
  LIBRARY MODULE, NAME : ?strlen

  SEGMENTS IN THE MODULE
  ======================
<CODE> 3 (was CODE)
  Relative segment, address: 00015C0C - 00015C2B (0x20 bytes), align: 1
  Segment part 2.
           ENTRY                   ADDRESS         REF BY
           =====                   =======         ======
           strlen                  00015C0C        _PrintfTiny (?xprintftiny)
                                                   hci_handle_init_sequence (hci_init)
                                                   hci_set_local_name (hci_init)
               CSTACK = 00000000 ( 00000004 )

    -------------------------------------------------------------------------
  LIBRARY MODULE, NAME : ?strncmp

  SEGMENTS IN THE MODULE
  ======================
<CODE> 3 (was CODE)
  Relative segment, address: 000155D2 - 00015601 (0x30 bytes), align: 1
  Segment part 2.
           ENTRY                   ADDRESS         REF BY
           =====                   =======         ======
           strncmp                 000155D2        ?Subroutine2 (appl_cb)
               CSTACK = 00000000 ( 00000008 )

    -------------------------------------------------------------------------
  LIBRARY MODULE, NAME : ?strncpy

  SEGMENTS IN THE MODULE
  ======================
<CODE> 3 (was CODE)
  Relative segment, address: 00015222 - 00015259 (0x38 bytes), align: 1
  Segment part 2.
           ENTRY                   ADDRESS         REF BY
           =====                   =======         ======
           strncpy                 00015222        prvInitialiseTCBVariables (tasks)
               CSTACK = 00000000 ( 0000000C )

    -------------------------------------------------------------------------
  LIBRARY MODULE, NAME : ?xprintftiny

  SEGMENTS IN THE MODULE
  ======================
<CODE> 1 (was CODE)
  Relative segment, address: C6A0 - C84F (0x1b0 bytes), align: 1
  Segment part 2.
           ENTRY                   ADDRESS         REF BY
           =====                   =======         ======
           _PrintfTiny             C6A0            sprintf (?sprintf)
               calls direct and indirect
               CSTACK = 00000000 ( 00000038 )
    -------------------------------------------------------------------------
<CODE> 3 (was CODE)
  Relative segment, address: 00016B4E - 00016B4F (0x2 bytes), align: 1
  Segment part 3.             Intra module refs:   _PrintfTiny
    -------------------------------------------------------------------------
<CODE> 3 (was CODE)
  Relative segment, address: 00016B50 - 00016B55 (0x6 bytes), align: 1
  Segment part 4.             Intra module refs:   Segment part 3
                                                   _PrintfTiny
    -------------------------------------------------------------------------
<CODE> 3 (was CODE)
  Relative segment, address: 0001654E - 0001655D (0x10 bytes), align: 1
  Segment part 5.             Intra module refs:   _PrintfTiny

    -------------------------------------------------------------------------
  LIBRARY MODULE, NAME : ?xsprout

  SEGMENTS IN THE MODULE
  ======================
<CODE> 3 (was CODE)
  Relative segment, address: 000167A2 - 000167AF (0xe bytes), align: 1
  Segment part 2.
           ENTRY                   ADDRESS         REF BY
           =====                   =======         ======
           _SProut                 000167A2        sprintf (?sprintf)
               CSTACK = 00000000 ( 00000004 )




                ****************************************
                *                                      *
                *            MODULE SUMMARY            *
                *                                      *
                ****************************************

Module                       CODE           DATA        CONST
------                       ----           ----        -----
                          (Rel)  (Abs)   (Rel)  (Abs)   (Rel)
?CopyMemoryBytes             20
?CopyMemoryBytes20           24
?CopyMemoryWords20           22
?DivMod32u                   68
?Mul32Hw32Loc2               34
?ShiftLeft32                 22
?__dbg_break                  2
?__exit                      20
?_exit                        4
?cstart                      56
?exit                         4
?memcmp                      46
?memcpy                      30
?memset                      30
?memzero                     28
?reset_vector                 2
?sprintf                     66
?strcpy                      18
?strlen                      32
?strncmp                     48
?strncpy                     56
?xprintftiny                456
?xsprout                     14
BT_common                   184              5
BT_common_pl                 36
BT_debug                      4
BT_os                       524             25
BT_timer                     12
accelerometer_pl             42              6
appl_bt_rf                  524             29             28
  + shared                   96                     2
  + common
appl_cb                   1 898            103            656
  + shared                                          2
appl_menu_pl                260             20      2      17
  + shared                   86                    12
  + common
appl_sdk                    756             47             12
appl_spp                  1 084             15              4
bt_id_check                 120             11             23
db_gen                      126             28            225
db_sdp_interface          1 094              4
hal_board                   622                    52
  + shared                                          8
hal_i2c                     492                    10
  + shared                                          2
hal_tlv                      40
hal_usb                     254            256      9
  + common                   94
hci_api                     298
hci_command_queue           730
hci_commands              1 912
hci_connect                 966
hci_dev_attr                 76
hci_disconnect              196
hci_events                1 534                           256
hci_host_controller_api     294
hci_init                    620            172              8
hci_link_control_api        430
hci_link_policy_api         136
hci_sm                      616
hci_uart                    274             13
hci_utils                   386
heap_2                      384          3 272
heap_bt                     996          1 290
ht_read_task_pl              16              4
l2cap_command               634
l2cap_config              3 034
l2cap_connect             1 710
l2cap_data_recv           1 234
l2cap_data_send             316
l2cap_disconnect          1 142
l2cap_init                  610          1 245             44
l2cap_lmp                 1 016
l2cap_ping                  258
l2cap_signal                572
l2cap_sm                    424
l2cap_utils               1 576
list                        204
main                         50
  + shared                                          2
msp430_uart               1 138            638             32
  + common                  106
port                        240              2              2
portext                            446
queue                     1 386
read_task                   428            796             42
rfcomm_api                  846
rfcomm_bh                   554
rfcomm_incoming           3 926
rfcomm_init                 442            194            256
rfcomm_l2cap                854
rfcomm_outgoing           1 642
rfcomm_sm                   204
rfcomm_utils              1 966
rfcomm_write                856
sdk_pl                      774              3     12
  + shared                                          6
sdp_api                     896
sdp_bh                      358
sdp_client                1 608
sdp_init                    184            144
sdp_l2cap                 1 536
sdp_pdu_handler           1 610
sdp_server                2 976
sdp_util                    372
sdp_util_api                848
sm_api                      622
sm_core                   1 544
sm_init                     148            173              5
sm_interface              2 230
sm_pl                       542              4
sm_ssp_pl                   336             39              1
sm_storage                  232
sm_ui                       346
spp                       1 914             48
tasks                     1 758            186              5
user_task                   550             51             66
  + common                  100
vendor_specific_init        532             31             93
vendor_specific_script                       4         37 545
write_task                  784          1 173
write_task_pl                48             12
N/A (command line)                         300
N/A (alignment)
----------               ------    ---  ------    ---  ------
Total:                   69 048    446  10 343    119  39 320
  + common                  106


                ****************************************
                *                                      *
                *      SEGMENTS IN ADDRESS ORDER       *
                *                                      *
                ****************************************


SEGMENT              SPACE    START ADDRESS   END ADDRESS     SIZE  TYPE  ALIGN
=======              =====    =============   ===========     ====  ====  =====
DATA16_AN                              0102 - 0103               2   rel    0
                                       0120 - 0127               8 
                                       012C - 012D               2 
                                       015C - 015D               2 
                                       0160 - 0165               6 
                                       0168 - 0169               2 
                                       016C - 016F               4 
                                       0200 - 0207               8 
                                       020A - 020B               2 
                                       0218 - 021F               8 
                                       0222 - 0225               4 
                                       022A - 022B               2 
                                       0242 - 0245               4 
                                       024A - 024B               2 
                                       0262 - 0265               4 
                                       026A - 026B               2 
                                       0282 - 0287               6 
                                       028A - 028B               2 
                                       02A2 - 02A5               4 
                                       02AA - 02AB               2 
                                       0322 - 0325               4 
                                       0380 - 0383               4 
                                       0392 - 0393               2 
                                       060C - 060C               1 
                                       0640 - 0641               2 
                                       0646 - 0648               3 
                                       064A - 064A               1 
                                       064C - 064C               1 
                                       064E - 064E               1 
                                       065C - 065F               4 
                                       0680 - 0681               2 
                                       0686 - 0688               3 
                                       068E - 068E               1 
                                       069C - 069D               2 
                                       06A0 - 06A1               2 
                                       06A6 - 06A7               2 
                                       06AC - 06AC               1 
                                       06AE - 06AE               1 
                                       06B2 - 06B3               2 
                                       06BC - 06BD               2 
                                       070A - 070B               2 
DATA20_I                               1C00 - 1C59              5A   rel    1
DATA20_Z                               1C5A - 433A            26E1   rel    1
CSTACK                                 5AD4 - 5BFF             12C   rel    1
CSTART                                 5C00 - 5C37              38   rel    1
ISR_CODE                               5C38 - 5FE5             3AE   rel    1
DATA16_C                               5FE6 - 5FFD              18   rel    1
<CODE> 1                               5FFE - F4FF            9502   rel    1
<CODE> 2                               F6BE - FF7F             8C2   rel    1
INTVEC                                 FF80 - FFE9              6A   com    1
RESET                                  FFFE - FFFF               2   rel    1
<CODE> 3                           00010000 - 00016C0B        6C0C   rel    1
DATA20_C                           00016C0C - 00020531        9926   rel    1
DATA20_ID                          00020532 - 0002058B          5A   rel    1
                                       F500 - F6BD             1BE  aseg  

                ****************************************
                *                                      *
                *        END OF CROSS REFERENCE        *
                *                                      *
                ****************************************

 69 154 bytes of CODE  memory (+ 446 absolute )
 10 343 bytes of DATA  memory (+ 119 absolute )
 39 320 bytes of CONST memory

Errors: none
Warnings: 1

